Certificate:
    Data:
        Version: 3 (0x2)
        Serial Number: 5 (0x5)
    Signature Algorithm: sha256WithRSAEncryption
        Issuer: C=US, ST=California, L=Stanford, O=BMIR, OU=CEDAR, CN=metadatacenter.orgx/emailAddress=metadatacenter@gmail.com
        Validity
            Not Before: Jun 11 23:27:58 2018 GMT
            Not After : Jun  8 23:27:58 2028 GMT
        Subject: C=US, ST=California, O=BMIR, OU=CEDAR, CN=metadatacenter.orgx/emailAddress=metadatacenter@gmail.com
        Subject Public Key Info:
            Public Key Algorithm: rsaEncryption
                Public-Key: (2048 bit)
                Modulus:
                    00:b7:cd:1e:f2:c1:31:27:0f:f6:e7:93:a9:74:a3:
                    90:ea:b7:e6:7e:85:75:41:6f:0a:f2:21:89:15:79:
                    c3:0d:2c:2d:b3:e8:71:6a:a8:f8:0e:eb:09:3b:6c:
                    63:8f:a6:63:36:19:96:71:f9:da:46:b4:ce:51:6a:
                    85:0a:f1:7d:98:5b:8d:c5:78:1c:64:00:dd:30:a2:
                    42:bc:66:72:f5:63:f2:0d:a7:8f:b5:2e:96:2d:e0:
                    90:c1:5f:ec:fe:7f:4d:f3:8f:94:28:ac:3e:a4:9a:
                    d8:21:4c:54:3a:12:22:e0:52:84:96:ce:af:fc:c6:
                    af:6d:29:04:63:00:a6:5e:c0:4c:e9:81:a7:bb:92:
                    48:ce:85:93:0d:23:01:9a:bf:3c:5c:e8:9d:32:93:
                    df:b5:cc:75:a6:01:fc:3a:c6:2b:38:a7:5d:13:66:
                    68:27:45:f1:d5:18:36:8e:7b:81:02:33:a5:0d:c7:
                    62:10:74:62:27:56:67:a5:fd:41:2e:c2:2b:b9:7a:
                    44:8d:39:8a:d9:f2:70:e9:c3:06:1e:48:f7:5c:a9:
                    63:32:6e:9d:96:f6:60:66:a9:f0:a2:b8:05:b8:cc:
                    79:9b:c3:0f:7c:0b:e1:f2:b9:25:77:9b:62:55:fb:
                    7d:35:d4:da:c9:6e:e5:d8:37:97:9d:a4:db:e5:3c:
                    17:e7
                Exponent: 65537 (0x10001)
        X509v3 extensions:
            X509v3 Basic Constraints: 
                CA:FALSE
            Netscape Comment: 
                OpenSSL Generated Certificate
            X509v3 Subject Key Identifier: 
                76:1E:5C:A5:BF:D7:96:BF:F1:58:40:7F:76:F2:68:57:BC:3D:7A:A1
            X509v3 Authority Key Identifier: 
                keyid:FB:A7:23:D3:57:E6:17:E1:D9:AF:FE:71:2C:97:E1:EA:94:5D:FC:D6

            X509v3 Subject Alternative Name: 
                DNS:*.metadatacenter.orgx
    Signature Algorithm: sha256WithRSAEncryption
         91:9e:9f:1c:3e:5f:ef:ec:1b:e8:13:34:0a:b8:4c:0b:40:ad:
         16:e1:35:36:88:78:c7:73:4a:3a:3a:38:a7:f3:48:79:f3:d7:
         85:c6:45:40:ad:c2:ee:a7:be:a2:d0:72:6d:a7:33:74:ee:2d:
         04:59:7b:99:33:aa:f5:9f:15:ed:4c:78:47:54:18:bb:a9:e8:
         1c:03:e8:a2:d6:61:ea:59:d0:cf:8d:53:27:08:72:c9:1a:b7:
         6f:49:92:2e:36:f0:19:20:60:6c:af:73:f0:3f:f3:86:7e:68:
         63:51:5d:61:85:12:9d:81:bd:51:49:19:11:73:49:67:0b:c1:
         e3:f5:66:55:3b:52:3a:1d:97:f1:0e:0a:9c:3e:cb:60:c0:4e:
         8e:ef:38:71:6c:4a:d9:49:c1:98:8c:b6:54:07:8f:c7:8e:3e:
         d3:d9:19:3e:98:f6:e5:c2:a2:48:87:25:49:cf:3f:7d:ca:a6:
         ef:54:ec:ed:d3:f5:f3:30:ea:7c:ee:2b:24:10:8a:01:7d:1a:
         28:a7:ca:28:8e:a2:de:f2:40:33:cb:20:80:04:73:62:d2:e9:
         40:e5:25:36:ef:2f:21:17:5f:fc:37:ed:5d:f9:96:0a:69:06:
         8e:3c:dc:c2:2a:f5:36:6a:f1:3b:68:38:27:48:7e:0a:54:06:
         eb:8c:96:54:10:47:92:3a:1d:1c:84:d2:3c:d7:bf:f8:1f:00:
         77:83:30:d0:aa:bc:1d:56:bf:8a:6f:2c:e7:14:14:9b:96:3d:
         7b:98:71:0b:fc:35:8f:6e:fc:83:50:c0:a1:6c:f2:11:d5:4f:
         17:10:3b:29:ba:2f:f1:cc:28:a2:62:61:2a:8f:c8:e0:5c:d1:
         23:c3:37:78:73:ed:77:35:eb:cc:9d:a1:ca:ae:0a:14:b9:51:
         58:bb:ca:5e:d9:57:6d:dd:0b:9d:24:16:00:90:f6:3b:91:90:
         c9:91:c0:8c:94:75:79:ed:e3:79:c7:10:6a:50:5e:cc:40:77:
         2c:76:21:9d:4c:a2:8e:bb:c3:ac:ae:e8:f4:c8:9a:24:9b:6b:
         d6:d6:21:62:00:61:21:e5:92:c1:41:25:59:9f:65:e1:a2:d4:
         28:ac:21:b3:de:05:fd:66:7d:16:f6:01:fe:93:af:dc:bd:d6:
         fe:aa:d7:3b:ad:cc:b1:87:67:df:07:2b:2c:8f:46:c9:bd:f1:
         c7:b6:3c:09:7a:c2:74:b2:5d:eb:3e:68:af:04:ba:46:18:d4:
         62:63:b8:b8:9c:17:47:27:25:6f:09:23:2c:20:32:24:2d:45:
         ff:d9:ae:9c:e7:26:ba:f4:b4:4c:45:50:20:2f:a9:3e:4d:6c:
         15:aa:84:5f:ff:d0:83:11
-----BEGIN CERTIFICATE-----
MIIFPzCCAyegAwIBAgIBBTANBgkqhkiG9w0BAQsFADCBmzELMAkGA1UEBhMCVVMx
EzARBgNVBAgMCkNhbGlmb3JuaWExETAPBgNVBAcMCFN0YW5mb3JkMQ0wCwYDVQQK
DARCTUlSMQ4wDAYDVQQLDAVDRURBUjEcMBoGA1UEAwwTbWV0YWRhdGFjZW50ZXIu
b3JneDEnMCUGCSqGSIb3DQEJARYYbWV0YWRhdGFjZW50ZXJAZ21haWwuY29tMB4X
DTE4MDYxMTIzMjc1OFoXDTI4MDYwODIzMjc1OFowgYgxCzAJBgNVBAYTAlVTMRMw
EQYDVQQIDApDYWxpZm9ybmlhMQ0wCwYDVQQKDARCTUlSMQ4wDAYDVQQLDAVDRURB
UjEcMBoGA1UEAwwTbWV0YWRhdGFjZW50ZXIub3JneDEnMCUGCSqGSIb3DQEJARYY
bWV0YWRhdGFjZW50ZXJAZ21haWwuY29tMIIBIjANBgkqhkiG9w0BAQEFAAOCAQ8A
MIIBCgKCAQEAt80e8sExJw/255OpdKOQ6rfmfoV1QW8K8iGJFXnDDSwts+hxaqj4
DusJO2xjj6ZjNhmWcfnaRrTOUWqFCvF9mFuNxXgcZADdMKJCvGZy9WPyDaePtS6W
LeCQwV/s/n9N84+UKKw+pJrYIUxUOhIi4FKEls6v/MavbSkEYwCmXsBM6YGnu5JI
zoWTDSMBmr88XOidMpPftcx1pgH8OsYrOKddE2ZoJ0Xx1Rg2jnuBAjOlDcdiEHRi
J1Znpf1BLsIruXpEjTmK2fJw6cMGHkj3XKljMm6dlvZgZqnworgFuMx5m8MPfAvh
8rkld5tiVft9NdTayW7l2DeXnaTb5TwX5wIDAQABo4GeMIGbMAkGA1UdEwQCMAAw
LAYJYIZIAYb4QgENBB8WHU9wZW5TU0wgR2VuZXJhdGVkIENlcnRpZmljYXRlMB0G
A1UdDgQWBBR2Hlylv9eWv/FYQH928mhXvD16oTAfBgNVHSMEGDAWgBT7pyPTV+YX
4dmv/nEsl+HqlF381jAgBgNVHREEGTAXghUqLm1ldGFkYXRhY2VudGVyLm9yZ3gw
DQYJKoZIhvcNAQELBQADggIBAJGenxw+X+/sG+gTNAq4TAtArRbhNTaIeMdzSjo6
OKfzSHnz14XGRUCtwu6nvqLQcm2nM3TuLQRZe5kzqvWfFe1MeEdUGLup6BwD6KLW
YepZ0M+NUycIcskat29Jki428BkgYGyvc/A/84Z+aGNRXWGFEp2BvVFJGRFzSWcL
weP1ZlU7Ujodl/EOCpw+y2DATo7vOHFsStlJwZiMtlQHj8eOPtPZGT6Y9uXCokiH
JUnPP33Kpu9U7O3T9fMw6nzuKyQQigF9GiinyiiOot7yQDPLIIAEc2LS6UDlJTbv
LyEXX/w37V35lgppBo483MIq9TZq8TtoOCdIfgpUBuuMllQQR5I6HRyE0jzXv/gf
AHeDMNCqvB1Wv4pvLOcUFJuWPXuYcQv8NY9u/INQwKFs8hHVTxcQOym6L/HMKKJi
YSqPyOBc0SPDN3hz7Xc168ydocquChS5UVi7yl7ZV23dC50kFgCQ9juRkMmRwIyU
dXnt43nHEGpQXsxAdyx2IZ1Moo67w6yu6PTImiSba9bWIWIAYSHlksFBJVmfZeGi
1CisIbPeBf1mfRb2Af6Tr9y91v6q1zutzLGHZ98HKyyPRsm98ce2PAl6wnSyXes+
aK8EukYY1GJjuLicF0cnJW8JIywgMiQtRf/ZrpznJrr0tExFUCAvqT5NbBWqhF//
0IMR
-----END CERTIFICATE-----
