Certificate:
    Data:
        Version: 3 (0x2)
        Serial Number: 7 (0x7)
        Signature Algorithm: sha256WithRSAEncryption
        Issuer: C=US, ST=CA, L=Stanford, O=BMIR, OU=CEDAR, CN=metadatacenter.orgx/emailAddress=metadatacenter@gmail.com
        Validity
            Not Before: Oct  6 00:24:43 2020 GMT
            Not After : Jan  8 00:24:43 2023 GMT
        Subject: C=US, ST=CA, O=BMIR, OU=CEDAR, CN=metadatacenter.orgx/emailAddress=metadatacenter@gmail.com
        Subject Public Key Info:
            Public Key Algorithm: rsaEncryption
                RSA Public-Key: (2048 bit)
                Modulus:
                    00:ae:a8:a2:33:32:ec:4b:2f:3b:15:74:0e:37:83:
                    82:a8:61:c7:b2:90:c6:20:0e:2b:58:af:c5:27:1f:
                    cb:81:5a:a3:3c:16:7b:10:b9:4a:6a:fe:ec:a2:30:
                    cf:0b:e6:72:a7:48:02:e2:ef:dc:ba:b5:5e:31:22:
                    12:bc:2c:2f:dd:9b:b2:de:f6:03:18:3f:2e:30:e6:
                    72:cc:35:60:d6:62:9d:62:0c:24:39:aa:2e:48:df:
                    b9:5a:2b:b2:16:c2:9d:cb:80:ee:29:36:9b:04:a1:
                    00:de:77:d8:15:b9:f2:98:9e:97:9b:47:c4:9f:c0:
                    d5:01:8c:b8:af:da:ce:aa:7c:55:33:15:ea:3b:42:
                    64:4e:34:80:ab:6e:33:07:7f:ab:b9:59:96:d3:84:
                    0a:80:c2:14:b9:52:54:84:42:39:b0:ea:a8:b8:cc:
                    d7:1c:eb:bd:8f:4a:21:36:d7:33:64:01:30:2e:3c:
                    57:e4:8a:cc:fa:7e:57:6c:9b:36:55:27:f3:55:be:
                    c0:7e:6e:4f:ca:f6:33:8e:3b:95:00:99:ea:59:ef:
                    fb:17:fd:00:04:eb:ba:81:8b:39:2b:c2:2e:14:99:
                    bd:ae:80:27:41:7c:27:a0:1d:02:76:af:27:d4:e3:
                    2a:dd:41:0b:5b:81:c2:c0:a0:e5:d2:be:9f:9c:25:
                    9e:2f
                Exponent: 65537 (0x10001)
        X509v3 extensions:
            X509v3 Basic Constraints: 
                CA:FALSE
            Netscape Comment: 
                OpenSSL Generated Certificate
            X509v3 Subject Key Identifier: 
                2C:E3:4C:EB:E3:5A:C7:1C:38:0E:06:F6:D9:A9:8B:28:11:75:BA:1E
            X509v3 Authority Key Identifier: 
                keyid:77:A3:31:7A:29:2E:2A:3D:AA:26:93:C7:E1:8E:09:2E:30:88:0F:96

    Signature Algorithm: sha256WithRSAEncryption
         d7:3f:5f:92:86:e0:93:7b:fa:e2:58:66:e9:7c:d6:f7:3d:53:
         55:6c:25:a4:54:e3:39:a6:8b:3b:a3:be:af:0a:3e:ab:1a:2f:
         f3:71:cc:a8:8c:97:d5:46:e5:28:f6:1c:3e:1a:ab:7d:1c:5a:
         b4:e3:c2:0a:da:55:8d:bf:30:42:33:f2:f6:e5:16:a4:f6:85:
         1e:78:e5:21:27:2c:5f:30:88:ec:33:7d:61:fd:65:d0:23:16:
         39:86:4f:13:b4:da:4b:5a:54:16:a9:96:15:a7:e3:ae:98:bb:
         cb:0c:9f:59:97:33:77:9e:12:83:32:da:b4:b2:7a:ef:d2:e3:
         d7:2e:ee:91:af:ac:d1:ce:95:5c:65:93:b1:21:01:05:47:63:
         57:05:4c:a5:5a:48:fe:7b:8f:52:36:3b:77:1b:61:66:94:ce:
         ca:d4:d2:31:5a:69:00:45:7c:41:bc:65:2f:44:f9:f0:8d:91:
         94:04:27:31:12:bf:fc:4f:e0:c0:e5:36:c5:e2:fa:72:8c:51:
         7a:2e:ed:f0:35:4e:c0:5b:01:f9:33:12:9e:71:b5:7c:1c:8a:
         38:ef:e9:f8:69:58:ef:e2:30:3e:0c:dd:4c:58:03:ea:b5:8c:
         73:fa:9c:50:3c:eb:d7:37:ad:92:f5:44:02:1e:b9:8e:1f:f5:
         e3:7f:8c:3b:22:7f:7d:39:c7:6c:d9:4d:2b:ba:bf:95:ee:c6:
         2a:34:b6:2a:21:e4:01:9f:e7:12:18:2b:73:cd:ed:1f:22:ae:
         32:19:a0:02:91:88:ea:b5:63:50:35:e8:82:45:bd:45:a8:a0:
         a2:28:07:ec:8e:90:51:99:53:70:6c:41:9d:00:84:b9:2b:a8:
         4e:8b:11:fd:24:47:73:3b:03:08:f6:aa:ce:8d:58:92:c6:72:
         dc:03:e3:67:67:0a:4f:88:5d:0d:c6:43:ff:1b:7d:c4:51:23:
         93:2c:f9:e0:cb:fb:a1:04:d6:34:5d:e4:51:df:29:15:a9:a5:
         c8:53:07:9a:c5:f8:a7:c7:48:9f:57:09:1b:f5:76:da:c9:7f:
         70:8b:0b:b6:16:31:38:c8:7f:cc:91:60:70:02:79:e8:36:7e:
         1d:44:af:83:a3:9e:9e:6c:72:97:0f:39:4d:a2:b6:70:65:f6:
         5f:24:0d:c3:d9:9f:74:5d:4b:a6:e9:6a:2c:f2:ac:db:37:98:
         4a:ee:62:49:08:a5:82:8d:68:b7:6d:15:e2:f7:e3:9b:42:76:
         2a:c2:fa:10:ad:40:78:1a:a4:14:20:b7:0e:5f:a0:3f:c0:15:
         92:ab:de:df:84:6d:ba:72:cc:e9:f3:7f:2f:95:ef:78:91:30:
         76:19:7c:8f:10:5a:ea:12
-----BEGIN CERTIFICATE-----
MIIFCzCCAvOgAwIBAgIBBzANBgkqhkiG9w0BAQsFADCBkzELMAkGA1UEBhMCVVMx
CzAJBgNVBAgMAkNBMREwDwYDVQQHDAhTdGFuZm9yZDENMAsGA1UECgwEQk1JUjEO
MAwGA1UECwwFQ0VEQVIxHDAaBgNVBAMME21ldGFkYXRhY2VudGVyLm9yZ3gxJzAl
BgkqhkiG9w0BCQEWGG1ldGFkYXRhY2VudGVyQGdtYWlsLmNvbTAeFw0yMDEwMDYw
MDI0NDNaFw0yMzAxMDgwMDI0NDNaMIGAMQswCQYDVQQGEwJVUzELMAkGA1UECAwC
Q0ExDTALBgNVBAoMBEJNSVIxDjAMBgNVBAsMBUNFREFSMRwwGgYDVQQDDBNtZXRh
ZGF0YWNlbnRlci5vcmd4MScwJQYJKoZIhvcNAQkBFhhtZXRhZGF0YWNlbnRlckBn
bWFpbC5jb20wggEiMA0GCSqGSIb3DQEBAQUAA4IBDwAwggEKAoIBAQCuqKIzMuxL
LzsVdA43g4KoYceykMYgDitYr8UnH8uBWqM8FnsQuUpq/uyiMM8L5nKnSALi79y6
tV4xIhK8LC/dm7Le9gMYPy4w5nLMNWDWYp1iDCQ5qi5I37laK7IWwp3LgO4pNpsE
oQDed9gVufKYnpebR8SfwNUBjLiv2s6qfFUzFeo7QmRONICrbjMHf6u5WZbThAqA
whS5UlSEQjmw6qi4zNcc672PSiE21zNkATAuPFfkisz6fldsmzZVJ/NVvsB+bk/K
9jOOO5UAmepZ7/sX/QAE67qBizkrwi4Umb2ugCdBfCegHQJ2ryfU4yrdQQtbgcLA
oOXSvp+cJZ4vAgMBAAGjezB5MAkGA1UdEwQCMAAwLAYJYIZIAYb4QgENBB8WHU9w
ZW5TU0wgR2VuZXJhdGVkIENlcnRpZmljYXRlMB0GA1UdDgQWBBQs40zr41rHHDgO
BvbZqYsoEXW6HjAfBgNVHSMEGDAWgBR3ozF6KS4qPaomk8fhjgkuMIgPljANBgkq
hkiG9w0BAQsFAAOCAgEA1z9fkobgk3v64lhm6XzW9z1TVWwlpFTjOaaLO6O+rwo+
qxov83HMqIyX1UblKPYcPhqrfRxatOPCCtpVjb8wQjPy9uUWpPaFHnjlIScsXzCI
7DN9Yf1l0CMWOYZPE7TaS1pUFqmWFafjrpi7ywyfWZczd54SgzLatLJ679Lj1y7u
ka+s0c6VXGWTsSEBBUdjVwVMpVpI/nuPUjY7dxthZpTOytTSMVppAEV8QbxlL0T5
8I2RlAQnMRK//E/gwOU2xeL6coxRei7t8DVOwFsB+TMSnnG1fByKOO/p+GlY7+Iw
PgzdTFgD6rWMc/qcUDzr1zetkvVEAh65jh/143+MOyJ/fTnHbNlNK7q/le7GKjS2
KiHkAZ/nEhgrc83tHyKuMhmgApGI6rVjUDXogkW9RaigoigH7I6QUZlTcGxBnQCE
uSuoTosR/SRHczsDCPaqzo1YksZy3APjZ2cKT4hdDcZD/xt9xFEjkyz54Mv7oQTW
NF3kUd8pFamlyFMHmsX4p8dIn1cJG/V22sl/cIsLthYxOMh/zJFgcAJ56DZ+HUSv
g6Oenmxylw85TaK2cGX2XyQNw9mfdF1LpulqLPKs2zeYSu5iSQilgo1ot20V4vfj
m0J2KsL6EK1AeBqkFCC3Dl+gP8AVkqve34RtunLM6fN/L5XveJEwdhl8jxBa6hI=
-----END CERTIFICATE-----
