Certificate:
    Data:
        Version: 3 (0x2)
        Serial Number: 15 (0xf)
    Signature Algorithm: sha256WithRSAEncryption
        Issuer: C=US, ST=California, L=Stanford, O=BMIR, OU=CEDAR, CN=metadatacenter.orgx/emailAddress=metadatacenter@gmail.com
        Validity
            Not Before: Jun 11 23:39:37 2018 GMT
            Not After : Jun  8 23:39:37 2028 GMT
        Subject: C=US, ST=California, O=BMIR, OU=CEDAR, CN=valuerecommender.metadatacenter.orgx/emailAddress=metadatacenter@gmail.com
        Subject Public Key Info:
            Public Key Algorithm: rsaEncryption
                Public-Key: (2048 bit)
                Modulus:
                    00:b2:0e:11:31:35:22:c9:cd:ce:fd:83:19:04:96:
                    58:04:7a:f9:b1:5e:c5:4e:5a:f6:d0:e0:e5:9f:32:
                    32:3a:0f:16:ca:0b:ba:78:2f:8b:1f:b9:b5:9a:ac:
                    9e:70:10:7f:b7:a3:a1:14:75:0a:46:7d:8e:94:5f:
                    bf:78:ea:b5:75:21:17:7d:cb:cc:51:55:24:20:e6:
                    70:05:49:6f:7b:22:e5:02:82:37:1b:37:cf:05:87:
                    39:49:85:2d:0e:e2:4f:0b:77:32:c2:9f:95:a6:55:
                    64:eb:05:9e:af:f1:51:87:80:f2:19:2d:2d:bc:f0:
                    4f:f9:87:ea:87:36:21:8f:38:42:b6:b6:75:fb:2d:
                    00:f7:5e:ab:66:a5:18:d7:ac:af:cd:2c:c4:36:bb:
                    9c:92:0d:47:d6:06:bd:f7:0c:44:fd:bf:2e:ae:70:
                    b5:df:7f:cb:b8:93:14:48:88:10:e0:56:2b:3c:40:
                    d9:ff:8a:df:12:1a:42:2e:46:93:fc:42:96:87:26:
                    53:ab:bc:71:b2:0a:cc:b0:48:66:b2:ca:62:d2:cf:
                    7c:30:9a:4e:08:8a:ef:7a:51:20:2e:dd:00:b8:51:
                    21:c9:90:e0:7e:31:13:29:c5:07:81:11:c5:2c:69:
                    20:e6:0c:28:ae:f4:5a:43:bf:f4:32:66:b0:50:28:
                    a3:ad
                Exponent: 65537 (0x10001)
        X509v3 extensions:
            X509v3 Basic Constraints: 
                CA:FALSE
            Netscape Comment: 
                OpenSSL Generated Certificate
            X509v3 Subject Key Identifier: 
                1A:19:62:0F:B0:DD:15:DC:DB:32:6F:59:AD:FA:DA:5A:0F:AB:C1:79
            X509v3 Authority Key Identifier: 
                keyid:FB:A7:23:D3:57:E6:17:E1:D9:AF:FE:71:2C:97:E1:EA:94:5D:FC:D6

            X509v3 Subject Alternative Name: 
                DNS:*.metadatacenter.orgx
    Signature Algorithm: sha256WithRSAEncryption
         03:7e:86:34:ee:94:d7:b0:e2:1c:47:b1:2d:00:23:fc:90:e0:
         75:71:28:7a:56:93:55:df:1a:00:9f:68:97:ea:df:22:09:76:
         82:f4:2c:89:6b:e2:8a:fd:b7:ff:26:f4:97:32:fc:0d:e9:52:
         35:ec:97:c7:de:dc:45:6c:5b:66:12:57:f1:d9:d1:9e:58:e8:
         14:83:e4:22:44:33:83:02:cb:98:ae:12:11:12:23:59:40:01:
         4f:f3:ac:b1:32:8d:02:07:bd:70:35:8d:fe:8d:dd:56:e8:7a:
         73:cd:81:87:e6:6a:d7:85:6f:81:0c:da:1b:b9:bc:c8:e6:02:
         73:9d:ee:ce:a5:fb:73:85:37:d2:14:2f:f6:5a:f8:88:eb:ef:
         51:42:53:3f:50:65:c5:d2:8f:49:cd:9b:10:6f:6d:6f:81:8b:
         8a:7b:06:2e:f6:88:ea:5f:99:c3:c9:0d:fe:c5:17:96:35:55:
         fb:a0:fb:5a:6d:df:a9:b1:38:0f:2f:52:43:15:5e:b1:a7:53:
         6c:50:cd:b5:fb:ea:47:1b:ba:95:7b:78:b9:a6:7f:14:e1:c9:
         01:3d:24:c6:ce:03:45:77:9a:cf:c8:d8:30:b3:d3:a9:e0:c8:
         68:63:c2:97:5d:e6:fb:1f:b0:15:22:78:fe:6b:71:27:3d:db:
         fb:cc:ae:34:42:91:af:39:03:0c:af:a6:9d:82:98:8c:4d:b8:
         3f:a7:f5:4f:23:81:33:9f:f7:ec:e7:8a:70:3a:25:63:6c:c8:
         b1:6b:71:e3:56:b5:e9:d9:d7:30:6a:83:e2:6e:30:2a:a8:34:
         4c:2e:41:cd:28:cf:0a:ab:c4:7c:da:21:2e:ff:b5:01:f5:bd:
         3b:58:4f:25:0d:24:24:ad:18:91:fe:9a:b2:db:1f:8b:18:17:
         18:da:2c:8d:f5:71:60:c1:f7:f1:27:40:11:ed:00:e8:6f:33:
         6a:37:8f:b5:df:c4:23:6c:9a:e0:f5:90:ca:dc:88:20:1e:4e:
         a7:77:ce:46:2c:ea:75:73:3b:d1:d2:a3:83:1f:21:3a:c1:c3:
         45:df:61:16:9f:fd:8d:1f:fb:97:d0:15:f8:b5:89:87:c4:d1:
         79:65:d5:53:ef:ee:4a:7e:f6:c2:11:f1:0e:ab:96:4c:89:24:
         6c:e6:09:52:8d:41:e9:9e:3e:e3:3c:55:30:86:1c:8a:0f:ee:
         ee:41:3d:16:d7:b0:2d:dc:4b:26:48:f4:e4:4e:69:89:fa:ce:
         d5:40:13:b4:f4:de:a7:ec:0f:03:5d:ca:67:4b:a5:e0:46:a6:
         20:7b:c2:06:20:c3:c1:81:e5:e0:c3:b4:98:0b:32:11:c8:f7:
         4a:a5:ec:a1:d0:e2:6d:4c
-----BEGIN CERTIFICATE-----
MIIFUDCCAzigAwIBAgIBDzANBgkqhkiG9w0BAQsFADCBmzELMAkGA1UEBhMCVVMx
EzARBgNVBAgMCkNhbGlmb3JuaWExETAPBgNVBAcMCFN0YW5mb3JkMQ0wCwYDVQQK
DARCTUlSMQ4wDAYDVQQLDAVDRURBUjEcMBoGA1UEAwwTbWV0YWRhdGFjZW50ZXIu
b3JneDEnMCUGCSqGSIb3DQEJARYYbWV0YWRhdGFjZW50ZXJAZ21haWwuY29tMB4X
DTE4MDYxMTIzMzkzN1oXDTI4MDYwODIzMzkzN1owgZkxCzAJBgNVBAYTAlVTMRMw
EQYDVQQIDApDYWxpZm9ybmlhMQ0wCwYDVQQKDARCTUlSMQ4wDAYDVQQLDAVDRURB
UjEtMCsGA1UEAwwkdmFsdWVyZWNvbW1lbmRlci5tZXRhZGF0YWNlbnRlci5vcmd4
MScwJQYJKoZIhvcNAQkBFhhtZXRhZGF0YWNlbnRlckBnbWFpbC5jb20wggEiMA0G
CSqGSIb3DQEBAQUAA4IBDwAwggEKAoIBAQCyDhExNSLJzc79gxkEllgEevmxXsVO
WvbQ4OWfMjI6DxbKC7p4L4sfubWarJ5wEH+3o6EUdQpGfY6UX7946rV1IRd9y8xR
VSQg5nAFSW97IuUCgjcbN88FhzlJhS0O4k8LdzLCn5WmVWTrBZ6v8VGHgPIZLS28
8E/5h+qHNiGPOEK2tnX7LQD3XqtmpRjXrK/NLMQ2u5ySDUfWBr33DET9vy6ucLXf
f8u4kxRIiBDgVis8QNn/it8SGkIuRpP8QpaHJlOrvHGyCsywSGayymLSz3wwmk4I
iu96USAu3QC4USHJkOB+MRMpxQeBEcUsaSDmDCiu9FpDv/QyZrBQKKOtAgMBAAGj
gZ4wgZswCQYDVR0TBAIwADAsBglghkgBhvhCAQ0EHxYdT3BlblNTTCBHZW5lcmF0
ZWQgQ2VydGlmaWNhdGUwHQYDVR0OBBYEFBoZYg+w3RXc2zJvWa362loPq8F5MB8G
A1UdIwQYMBaAFPunI9NX5hfh2a/+cSyX4eqUXfzWMCAGA1UdEQQZMBeCFSoubWV0
YWRhdGFjZW50ZXIub3JneDANBgkqhkiG9w0BAQsFAAOCAgEAA36GNO6U17DiHEex
LQAj/JDgdXEoelaTVd8aAJ9ol+rfIgl2gvQsiWviiv23/yb0lzL8DelSNeyXx97c
RWxbZhJX8dnRnljoFIPkIkQzgwLLmK4SERIjWUABT/OssTKNAge9cDWN/o3dVuh6
c82Bh+Zq14VvgQzaG7m8yOYCc53uzqX7c4U30hQv9lr4iOvvUUJTP1BlxdKPSc2b
EG9tb4GLinsGLvaI6l+Zw8kN/sUXljVV+6D7Wm3fqbE4Dy9SQxVesadTbFDNtfvq
Rxu6lXt4uaZ/FOHJAT0kxs4DRXeaz8jYMLPTqeDIaGPCl13m+x+wFSJ4/mtxJz3b
+8yuNEKRrzkDDK+mnYKYjE24P6f1TyOBM5/37OeKcDolY2zIsWtx41a16dnXMGqD
4m4wKqg0TC5BzSjPCqvEfNohLv+1AfW9O1hPJQ0kJK0Ykf6astsfixgXGNosjfVx
YMH38SdAEe0A6G8zajePtd/EI2ya4PWQytyIIB5Op3fORizqdXM70dKjgx8hOsHD
Rd9hFp/9jR/7l9AV+LWJh8TReWXVU+/uSn72whHxDquWTIkkbOYJUo1B6Z4+4zxV
MIYcig/u7kE9FtewLdxLJkj05E5pifrO1UATtPTep+wPA13KZ0ul4EamIHvCBiDD
wYHl4MO0mAsyEcj3SqXsodDibUw=
-----END CERTIFICATE-----
