Certificate:
    Data:
        Version: 3 (0x2)
        Serial Number: 16 (0x10)
        Signature Algorithm: sha256WithRSAEncryption
        Issuer: C=US, ST=CA, L=Stanford, O=BMIR, OU=CEDAR, CN=metadatacenter.orgx/emailAddress=metadatacenter@gmail.com
        Validity
            Not Before: Oct  6 00:41:22 2020 GMT
            Not After : Jan  8 00:41:22 2023 GMT
        Subject: C=US, ST=CA, O=BMIR, OU=CEDAR, CN=valuerecommender.metadatacenter.orgx/emailAddress=metadatacenter@gmail.com
        Subject Public Key Info:
            Public Key Algorithm: rsaEncryption
                RSA Public-Key: (2048 bit)
                Modulus:
                    00:ca:92:ef:cc:33:1c:18:51:44:18:87:59:bc:75:
                    f9:35:9c:21:e2:87:39:b1:8e:b9:79:a9:88:ea:68:
                    44:70:a1:c3:9e:ec:21:42:d1:3c:40:37:46:07:33:
                    a5:61:03:4e:bc:74:96:8e:de:f8:e5:96:f9:5d:3b:
                    de:38:41:a4:88:c4:91:c5:90:77:c0:21:3a:52:ac:
                    55:2b:44:af:3b:d5:63:93:ea:ef:32:11:57:61:67:
                    d4:35:de:bb:9f:78:bc:cb:6f:b9:6d:fd:a8:39:db:
                    a6:2c:c5:73:c7:4e:ab:88:5e:3c:0a:90:b4:0c:73:
                    19:a2:22:6e:74:c5:5c:ee:34:9c:c2:1a:4f:63:f7:
                    c5:b4:67:92:b0:79:45:7c:80:ce:87:5c:69:c7:06:
                    7e:13:ed:77:4e:3e:4c:15:c9:72:aa:e6:5d:72:e6:
                    82:21:41:f6:87:18:74:65:b9:a9:e8:cb:43:c5:e5:
                    52:c5:64:40:94:0d:94:ec:2a:7c:71:8e:6b:08:16:
                    30:67:10:58:3b:26:1f:24:42:a0:42:13:d9:d8:78:
                    e2:23:f4:33:21:99:87:ce:07:bb:a9:86:48:ca:94:
                    14:50:51:83:92:72:6a:d7:0b:45:40:f5:57:04:1b:
                    c4:2c:36:55:35:a4:d4:38:b8:72:32:48:e6:bb:60:
                    96:8f
                Exponent: 65537 (0x10001)
        X509v3 extensions:
            X509v3 Basic Constraints: 
                CA:FALSE
            Netscape Comment: 
                OpenSSL Generated Certificate
            X509v3 Subject Key Identifier: 
                52:A3:30:E3:11:AA:D3:A4:2A:C1:5E:BA:29:34:A0:E7:DA:90:43:5D
            X509v3 Authority Key Identifier: 
                keyid:77:A3:31:7A:29:2E:2A:3D:AA:26:93:C7:E1:8E:09:2E:30:88:0F:96

    Signature Algorithm: sha256WithRSAEncryption
         97:d2:48:9d:0c:8c:7a:49:07:64:c5:88:9b:cd:a8:c2:7b:71:
         d0:54:36:7a:99:7d:7d:88:4d:0a:2d:d9:02:be:b9:b4:19:c9:
         82:55:d2:18:a6:aa:fa:ab:68:af:e9:66:a9:b8:dc:ea:cd:c3:
         c7:49:e6:d5:fb:a5:31:0d:f4:d3:69:a2:d0:b9:58:14:3f:da:
         b3:3d:22:b2:cd:57:5e:ee:b3:dc:e6:01:66:0f:45:07:93:87:
         a8:f8:07:fd:f6:62:77:e3:54:54:09:62:31:26:ff:f7:64:2d:
         d9:59:f4:be:54:f1:ce:56:42:cf:48:d2:6a:0b:4d:1e:c1:c4:
         50:fb:8b:4e:60:de:33:f5:2c:d4:62:6a:90:09:fb:ab:7b:8a:
         05:c0:a1:89:77:7e:d6:92:7f:3e:3f:b7:75:18:1e:bc:ef:6e:
         ad:48:62:9d:2c:64:97:f0:ba:0f:8a:5d:13:2e:0f:b4:fd:ef:
         69:6d:76:a6:0c:31:24:7b:46:91:8d:11:a2:af:6d:29:37:64:
         1a:69:14:2b:0c:38:ef:ba:2d:cd:c3:74:24:d3:74:fd:9f:28:
         96:c5:35:58:18:a1:0d:e9:40:54:d3:ed:99:82:bb:34:cd:54:
         6d:3b:98:04:1d:b0:e6:c0:70:ea:b0:16:31:0a:24:3f:dd:7c:
         a5:ad:06:1f:b4:d0:2b:bf:5d:e1:f3:b2:49:b0:d9:6d:06:c7:
         a6:47:28:94:7c:47:23:29:f0:9d:d7:1f:f2:21:6c:7f:b6:36:
         e5:1b:c8:c0:6a:06:50:54:78:2f:a5:32:6c:95:45:a8:06:67:
         46:50:4b:e1:97:bd:88:95:d4:5a:ae:7e:30:0a:2e:a2:47:bf:
         12:86:ae:9c:31:58:7d:73:3c:76:f3:fb:4d:98:4d:b8:20:b6:
         8d:09:c0:eb:bf:ca:b1:46:fc:68:02:fc:e5:40:68:22:39:85:
         93:64:36:cf:7c:43:80:99:a3:8a:f1:e6:d0:f1:d5:32:ac:ed:
         df:b4:4d:80:49:33:74:44:86:db:0d:9f:61:03:54:dd:af:01:
         3f:14:47:33:e0:7d:47:34:80:c1:2f:fb:c1:c2:04:87:09:63:
         cb:bb:83:4b:e9:07:ce:1a:d3:bf:7c:f6:3b:5e:43:42:5a:24:
         72:d1:d3:f8:43:51:47:70:f8:45:32:3f:44:95:14:45:76:56:
         a1:31:db:61:a9:1e:fa:39:2f:d6:e4:1c:a4:97:7e:7a:12:0f:
         12:e2:f5:8a:be:53:04:0f:08:f8:a3:fa:ca:87:54:41:37:29:
         9f:d0:00:a9:b4:dc:71:99:b8:ad:cf:ff:00:26:42:6f:ff:c1:
         79:44:2f:aa:9a:74:f0:f6
-----BEGIN CERTIFICATE-----
MIIFHDCCAwSgAwIBAgIBEDANBgkqhkiG9w0BAQsFADCBkzELMAkGA1UEBhMCVVMx
CzAJBgNVBAgMAkNBMREwDwYDVQQHDAhTdGFuZm9yZDENMAsGA1UECgwEQk1JUjEO
MAwGA1UECwwFQ0VEQVIxHDAaBgNVBAMME21ldGFkYXRhY2VudGVyLm9yZ3gxJzAl
BgkqhkiG9w0BCQEWGG1ldGFkYXRhY2VudGVyQGdtYWlsLmNvbTAeFw0yMDEwMDYw
MDQxMjJaFw0yMzAxMDgwMDQxMjJaMIGRMQswCQYDVQQGEwJVUzELMAkGA1UECAwC
Q0ExDTALBgNVBAoMBEJNSVIxDjAMBgNVBAsMBUNFREFSMS0wKwYDVQQDDCR2YWx1
ZXJlY29tbWVuZGVyLm1ldGFkYXRhY2VudGVyLm9yZ3gxJzAlBgkqhkiG9w0BCQEW
GG1ldGFkYXRhY2VudGVyQGdtYWlsLmNvbTCCASIwDQYJKoZIhvcNAQEBBQADggEP
ADCCAQoCggEBAMqS78wzHBhRRBiHWbx1+TWcIeKHObGOuXmpiOpoRHChw57sIULR
PEA3RgczpWEDTrx0lo7e+OWW+V073jhBpIjEkcWQd8AhOlKsVStErzvVY5Pq7zIR
V2Fn1DXeu594vMtvuW39qDnbpizFc8dOq4hePAqQtAxzGaIibnTFXO40nMIaT2P3
xbRnkrB5RXyAzodcaccGfhPtd04+TBXJcqrmXXLmgiFB9ocYdGW5qejLQ8XlUsVk
QJQNlOwqfHGOawgWMGcQWDsmHyRCoEIT2dh44iP0MyGZh84Hu6mGSMqUFFBRg5Jy
atcLRUD1VwQbxCw2VTWk1Di4cjJI5rtglo8CAwEAAaN7MHkwCQYDVR0TBAIwADAs
BglghkgBhvhCAQ0EHxYdT3BlblNTTCBHZW5lcmF0ZWQgQ2VydGlmaWNhdGUwHQYD
VR0OBBYEFFKjMOMRqtOkKsFeuik0oOfakENdMB8GA1UdIwQYMBaAFHejMXopLio9
qiaTx+GOCS4wiA+WMA0GCSqGSIb3DQEBCwUAA4ICAQCX0kidDIx6SQdkxYibzajC
e3HQVDZ6mX19iE0KLdkCvrm0GcmCVdIYpqr6q2iv6WapuNzqzcPHSebV+6UxDfTT
aaLQuVgUP9qzPSKyzVde7rPc5gFmD0UHk4eo+Af99mJ341RUCWIxJv/3ZC3ZWfS+
VPHOVkLPSNJqC00ewcRQ+4tOYN4z9SzUYmqQCfure4oFwKGJd37Wkn8+P7d1GB68
726tSGKdLGSX8LoPil0TLg+0/e9pbXamDDEke0aRjRGir20pN2QaaRQrDDjvui3N
w3Qk03T9nyiWxTVYGKEN6UBU0+2Zgrs0zVRtO5gEHbDmwHDqsBYxCiQ/3XylrQYf
tNArv13h87JJsNltBsemRyiUfEcjKfCd1x/yIWx/tjblG8jAagZQVHgvpTJslUWo
BmdGUEvhl72IldRarn4wCi6iR78Shq6cMVh9czx28/tNmE24ILaNCcDrv8qxRvxo
AvzlQGgiOYWTZDbPfEOAmaOK8ebQ8dUyrO3ftE2ASTN0RIbbDZ9hA1TdrwE/FEcz
4H1HNIDBL/vBwgSHCWPLu4NL6QfOGtO/fPY7XkNCWiRy0dP4Q1FHcPhFMj9ElRRF
dlahMdthqR76OS/W5Bykl356Eg8S4vWKvlMEDwj4o/rKh1RBNymf0ACptNxxmbit
z/8AJkJv/8F5RC+qmnTw9g==
-----END CERTIFICATE-----
