Certificate:
    Data:
        Version: 3 (0x2)
        Serial Number: 22 (0x16)
        Signature Algorithm: sha256WithRSAEncryption
        Issuer: C=US, ST=CA, L=Stanford, O=BMIR, OU=CEDAR, CN=metadatacenter.orgx/emailAddress=metadatacenter@gmail.com
        Validity
            Not Before: Nov 10 18:02:26 2020 GMT
            Not After : Feb 12 18:02:26 2023 GMT
        Subject: C=US, ST=CA, O=BMIR, OU=CEDAR, CN=impex.metadatacenter.orgx/emailAddress=metadatacenter@gmail.com
        Subject Public Key Info:
            Public Key Algorithm: rsaEncryption
                RSA Public-Key: (2048 bit)
                Modulus:
                    00:9c:79:5a:42:12:ea:e5:26:07:cb:a9:db:e6:10:
                    34:28:be:78:0e:61:67:6f:6b:b5:35:f0:f5:3f:92:
                    38:a5:f2:40:86:fa:fd:e6:99:00:57:9d:62:c9:db:
                    32:8e:37:73:9e:26:8c:29:f9:a2:0a:66:12:44:f1:
                    e3:6c:ac:46:ec:64:98:06:f4:8b:01:1d:b3:bc:5d:
                    d1:f8:34:43:62:23:b0:47:9d:bc:0d:0b:9e:f7:a5:
                    02:a7:b5:70:81:5c:1e:4a:45:af:48:2e:3d:45:1f:
                    c4:f2:ca:77:62:c6:53:cc:f7:3c:58:da:91:ea:6f:
                    08:bb:19:98:48:c7:94:40:d6:4e:29:d6:b7:2a:ad:
                    ea:bb:0a:b0:6b:2a:06:c1:e2:db:46:d0:ee:00:04:
                    dc:3b:5e:29:f8:8e:cf:94:a0:77:24:72:e8:19:39:
                    94:6d:f7:30:a9:fc:6c:59:08:84:4c:cb:14:8a:63:
                    05:0e:cd:c6:f4:3f:3f:35:58:0c:4f:af:7d:2e:3a:
                    7d:4f:71:2b:36:7c:9f:48:76:ff:5b:3b:15:dc:42:
                    69:b3:c8:0e:73:6f:58:ff:5b:c3:31:06:db:39:a7:
                    7a:a8:af:bc:99:56:3b:f7:da:90:dd:b2:f5:05:da:
                    8b:f1:f2:17:02:d2:29:a3:c2:c0:fd:90:7b:ff:4a:
                    48:57
                Exponent: 65537 (0x10001)
        X509v3 extensions:
            X509v3 Basic Constraints: 
                CA:FALSE
            Netscape Comment: 
                OpenSSL Generated Certificate
            X509v3 Subject Key Identifier: 
                AE:5B:B7:27:62:91:CF:DC:07:02:F6:02:C5:65:96:F5:66:08:EB:D9
            X509v3 Authority Key Identifier: 
                keyid:77:A3:31:7A:29:2E:2A:3D:AA:26:93:C7:E1:8E:09:2E:30:88:0F:96

    Signature Algorithm: sha256WithRSAEncryption
         6c:05:f8:81:24:c9:a3:11:5e:78:d3:00:35:70:6a:72:04:76:
         6d:78:7f:20:12:21:3c:ba:bd:30:6e:81:7d:f5:fa:22:31:2a:
         a0:17:7d:38:16:89:1a:49:c0:dd:a6:c9:79:06:cd:a4:85:07:
         55:9f:14:43:a3:a3:44:4d:82:21:bb:a9:9a:69:8e:4d:5a:69:
         f0:e2:86:f0:db:d8:dc:1e:a1:c4:51:41:e9:1d:88:ee:e0:d2:
         f7:02:5d:17:8b:14:cc:e7:8f:bb:47:c2:71:e5:55:39:80:d1:
         3e:f4:ae:9d:c0:b3:bc:df:58:5b:0a:55:05:80:fd:8d:47:85:
         e9:e2:07:3f:f9:20:3b:b9:ba:e1:72:e9:99:2f:e6:84:0e:9c:
         64:5d:e7:53:68:54:e0:9d:fb:6c:05:ab:dd:4b:40:6f:3b:c2:
         14:85:1e:0f:f2:88:01:c8:8a:0c:5f:de:e9:fd:30:f9:a2:04:
         9a:ec:69:60:8c:26:de:b3:fd:8c:4a:a3:ff:7e:2a:a1:ee:36:
         ee:e0:75:e4:dc:51:98:b8:b7:14:a1:25:21:43:6a:d7:26:94:
         4c:d5:a6:c6:48:8e:7d:45:1f:11:cc:ea:44:65:e2:e1:1a:11:
         77:58:9a:8f:c4:f7:08:30:c5:e3:01:53:24:b1:11:96:1d:05:
         be:83:db:44:51:40:5e:81:65:8e:e5:06:e4:0f:e8:f0:db:1d:
         6b:d6:c6:e2:eb:98:04:59:0a:55:ba:f2:26:79:db:b9:d0:60:
         17:c4:5d:2b:9e:b7:4a:05:cd:01:65:55:1b:16:05:24:b7:81:
         e7:5a:9e:5e:27:dd:6c:bf:66:08:83:37:0a:1d:2e:6f:f2:f7:
         11:fb:f5:9e:b0:25:2f:0a:19:c9:15:e8:16:f9:49:7d:31:af:
         45:da:71:e5:9f:47:a0:09:3a:f3:9c:2c:5f:7b:f9:36:8d:e7:
         f0:8b:89:18:30:e0:50:e1:22:dd:38:51:16:d3:39:6d:1e:11:
         b4:5a:6e:31:c0:ad:61:be:d3:84:5e:ac:e1:d4:6d:26:c8:fb:
         b0:6b:25:a7:8e:92:00:27:94:04:ec:6c:f0:54:9b:f3:ce:9f:
         6b:26:59:18:a3:40:30:26:b1:4c:0d:af:63:50:d1:e8:cf:6f:
         b5:9a:71:72:c4:cd:17:3a:d6:b6:6c:38:0e:c7:1b:a6:9c:01:
         d9:0d:f7:f1:19:1f:b7:90:e1:c9:06:9c:98:81:24:52:7e:95:
         6f:f9:60:9e:8b:73:eb:c7:a4:57:be:03:97:b8:3a:b0:66:c7:
         03:36:ad:3f:a8:b2:17:23:85:4e:3d:f3:a1:aa:eb:7e:f0:3e:
         68:d0:cb:06:4f:68:83:2b
-----BEGIN CERTIFICATE-----
MIIFETCCAvmgAwIBAgIBFjANBgkqhkiG9w0BAQsFADCBkzELMAkGA1UEBhMCVVMx
CzAJBgNVBAgMAkNBMREwDwYDVQQHDAhTdGFuZm9yZDENMAsGA1UECgwEQk1JUjEO
MAwGA1UECwwFQ0VEQVIxHDAaBgNVBAMME21ldGFkYXRhY2VudGVyLm9yZ3gxJzAl
BgkqhkiG9w0BCQEWGG1ldGFkYXRhY2VudGVyQGdtYWlsLmNvbTAeFw0yMDExMTAx
ODAyMjZaFw0yMzAyMTIxODAyMjZaMIGGMQswCQYDVQQGEwJVUzELMAkGA1UECAwC
Q0ExDTALBgNVBAoMBEJNSVIxDjAMBgNVBAsMBUNFREFSMSIwIAYDVQQDDBlpbXBl
eC5tZXRhZGF0YWNlbnRlci5vcmd4MScwJQYJKoZIhvcNAQkBFhhtZXRhZGF0YWNl
bnRlckBnbWFpbC5jb20wggEiMA0GCSqGSIb3DQEBAQUAA4IBDwAwggEKAoIBAQCc
eVpCEurlJgfLqdvmEDQovngOYWdva7U18PU/kjil8kCG+v3mmQBXnWLJ2zKON3Oe
Jowp+aIKZhJE8eNsrEbsZJgG9IsBHbO8XdH4NENiI7BHnbwNC573pQKntXCBXB5K
Ra9ILj1FH8TyyndixlPM9zxY2pHqbwi7GZhIx5RA1k4p1rcqreq7CrBrKgbB4ttG
0O4ABNw7Xin4js+UoHckcugZOZRt9zCp/GxZCIRMyxSKYwUOzcb0Pz81WAxPr30u
On1PcSs2fJ9Idv9bOxXcQmmzyA5zb1j/W8MxBts5p3qor7yZVjv32pDdsvUF2ovx
8hcC0imjwsD9kHv/SkhXAgMBAAGjezB5MAkGA1UdEwQCMAAwLAYJYIZIAYb4QgEN
BB8WHU9wZW5TU0wgR2VuZXJhdGVkIENlcnRpZmljYXRlMB0GA1UdDgQWBBSuW7cn
YpHP3AcC9gLFZZb1Zgjr2TAfBgNVHSMEGDAWgBR3ozF6KS4qPaomk8fhjgkuMIgP
ljANBgkqhkiG9w0BAQsFAAOCAgEAbAX4gSTJoxFeeNMANXBqcgR2bXh/IBIhPLq9
MG6BffX6IjEqoBd9OBaJGknA3abJeQbNpIUHVZ8UQ6OjRE2CIbupmmmOTVpp8OKG
8NvY3B6hxFFB6R2I7uDS9wJdF4sUzOePu0fCceVVOYDRPvSuncCzvN9YWwpVBYD9
jUeF6eIHP/kgO7m64XLpmS/mhA6cZF3nU2hU4J37bAWr3UtAbzvCFIUeD/KIAciK
DF/e6f0w+aIEmuxpYIwm3rP9jEqj/34qoe427uB15NxRmLi3FKElIUNq1yaUTNWm
xkiOfUUfEczqRGXi4RoRd1iaj8T3CDDF4wFTJLERlh0FvoPbRFFAXoFljuUG5A/o
8Nsda9bG4uuYBFkKVbryJnnbudBgF8RdK563SgXNAWVVGxYFJLeB51qeXifdbL9m
CIM3Ch0ub/L3Efv1nrAlLwoZyRXoFvlJfTGvRdpx5Z9HoAk685wsX3v5No3n8IuJ
GDDgUOEi3ThRFtM5bR4RtFpuMcCtYb7ThF6s4dRtJsj7sGslp46SACeUBOxs8FSb
886fayZZGKNAMCaxTA2vY1DR6M9vtZpxcsTNFzrWtmw4DscbppwB2Q338Rkft5Dh
yQacmIEkUn6Vb/lgnotz68ekV74Dl7g6sGbHAzatP6iyFyOFTj3zoarrfvA+aNDL
Bk9ogys=
-----END CERTIFICATE-----
