Certificate:
    Data:
        Version: 3 (0x2)
        Serial Number: 8 (0x8)
        Signature Algorithm: sha256WithRSAEncryption
        Issuer: C=US, ST=CA, L=Stanford, O=BMIR, OU=CEDAR, CN=metadatacenter.orgx/emailAddress=metadatacenter@gmail.com
        Validity
            Not Before: Oct  6 00:27:04 2020 GMT
            Not After : Jan  8 00:27:04 2023 GMT
        Subject: C=US, ST=CA, O=BMIR, OU=CEDAR, CN=open.metadatacenter.orgx/emailAddress=metadatacenter@gmail.com
        Subject Public Key Info:
            Public Key Algorithm: rsaEncryption
                RSA Public-Key: (2048 bit)
                Modulus:
                    00:d5:66:02:e7:16:11:f9:5a:94:82:b6:fc:01:bb:
                    97:b1:6d:11:53:0b:14:54:d5:dd:bb:81:d1:7b:89:
                    aa:5b:24:e0:5c:ac:d1:8f:91:6d:95:d0:a9:bd:5b:
                    15:2a:d7:62:5d:5b:78:56:e1:9d:bd:1d:6f:4b:bf:
                    ab:63:96:8a:7e:01:62:22:85:55:20:fc:4c:27:8d:
                    d9:ae:7f:d7:9f:05:b3:cd:0a:73:ee:70:e8:0e:98:
                    08:35:00:66:28:63:e1:a7:22:e1:4d:5f:62:94:d5:
                    45:7d:6c:7b:a3:4b:c1:5a:4d:28:e7:b4:3d:9d:bd:
                    bf:7b:63:fd:39:d3:20:bd:36:1a:94:d4:ec:af:22:
                    c3:0a:03:63:b1:ca:0b:c8:8e:56:1d:18:d2:95:91:
                    75:8a:98:aa:37:a8:ec:79:e2:9c:8d:ee:f3:14:1b:
                    ed:a7:7e:00:4e:2a:e7:9c:f4:05:4c:21:8b:70:00:
                    c1:b7:05:67:7c:0a:f7:cc:fc:70:4b:5a:63:43:9a:
                    de:51:6e:66:ad:9d:e4:49:a4:9e:a1:53:63:74:f1:
                    ae:62:78:a6:51:d1:8d:eb:2b:c3:ad:4b:b5:c5:60:
                    9b:b1:65:97:e7:8b:92:a0:6f:34:b2:47:65:7e:3e:
                    8c:b2:0e:28:86:2e:2e:9e:94:30:c1:cd:9b:55:94:
                    2e:ff
                Exponent: 65537 (0x10001)
        X509v3 extensions:
            X509v3 Basic Constraints: 
                CA:FALSE
            Netscape Comment: 
                OpenSSL Generated Certificate
            X509v3 Subject Key Identifier: 
                DD:F6:B2:ED:87:16:84:ED:59:58:27:DA:A4:0C:3F:C9:B4:18:B9:2E
            X509v3 Authority Key Identifier: 
                keyid:77:A3:31:7A:29:2E:2A:3D:AA:26:93:C7:E1:8E:09:2E:30:88:0F:96

    Signature Algorithm: sha256WithRSAEncryption
         b3:c7:06:3a:2f:f8:c0:47:a6:a0:b8:74:0d:0e:32:00:5a:77:
         32:6a:93:49:a1:fc:fc:8d:15:1b:2c:07:2b:da:08:8e:9c:5a:
         f1:af:55:4e:6f:b7:b3:b8:16:6c:8b:ca:62:6b:bd:f2:30:28:
         c6:78:1a:41:f2:14:0f:28:72:5a:8d:76:70:44:44:bc:f5:41:
         e0:38:da:85:e9:70:bd:b3:d4:be:19:d2:bf:07:2a:e5:e5:3d:
         2b:6c:6b:64:43:cf:ea:e7:57:96:98:3c:f5:2f:59:15:25:20:
         2c:2c:77:6d:9a:5b:1f:63:86:92:23:45:b0:86:3b:af:e9:a9:
         bf:a1:56:44:68:c9:75:64:e7:58:c9:bf:ec:30:c6:20:4e:66:
         c8:17:82:08:4d:fa:2d:af:63:e4:f1:6c:e6:b0:d1:36:57:1b:
         6e:bc:da:6a:ba:b4:e1:ee:70:5a:93:cf:22:d6:51:d8:a4:86:
         8f:5d:15:a3:a7:1a:19:d2:e7:0e:a7:ab:60:36:f1:bd:ac:1f:
         6b:ed:63:e0:e1:e0:11:95:78:d9:74:6f:ee:d6:38:af:fd:2b:
         01:6a:f2:f8:d5:ab:cf:80:6d:e5:87:57:bb:12:69:1c:77:2a:
         ab:56:fb:4a:93:24:fe:be:69:f5:a9:f4:4d:50:7c:38:41:5d:
         c1:a1:90:97:bb:80:97:64:90:dc:c6:2b:7c:9d:29:0b:cb:d3:
         23:6a:ec:ff:f1:46:ab:d1:39:3b:2f:29:64:92:ef:55:8c:26:
         14:9e:ef:69:2a:32:55:9b:c6:76:0d:68:a3:a8:fa:99:e8:d7:
         47:45:e3:7b:a3:7a:01:62:79:a3:f4:a3:6a:b2:54:50:70:7f:
         f3:73:01:b3:56:c2:81:3d:79:7d:bd:cf:09:b4:1c:f5:80:5d:
         a4:5d:cc:fa:dd:97:4a:a9:9a:32:d1:22:f6:6c:00:c8:1f:b4:
         4d:3d:a9:97:e7:24:e5:69:ff:43:d2:62:dc:38:d1:04:2e:5c:
         f8:2e:8f:f2:c9:96:59:bd:db:2c:94:34:e8:a5:c2:30:74:d0:
         bb:37:70:ea:06:25:44:4c:e9:03:b3:14:36:13:58:19:34:0d:
         e0:c7:04:23:d0:cc:10:97:cb:c3:0d:9f:67:8f:ea:69:b0:7a:
         48:3d:34:74:fa:7c:64:05:f6:cd:75:fd:a5:93:52:72:61:f9:
         36:98:b5:7a:a9:85:c2:54:36:e2:bc:83:dc:30:dd:a2:79:8d:
         79:80:e1:12:bd:05:61:6d:64:9c:46:77:f9:da:d9:cf:c6:28:
         eb:1d:e7:86:19:a4:d1:5c:c3:b5:74:d1:e2:8c:c2:66:58:72:
         48:8f:d8:8f:7c:6b:a6:25
-----BEGIN CERTIFICATE-----
MIIFEDCCAvigAwIBAgIBCDANBgkqhkiG9w0BAQsFADCBkzELMAkGA1UEBhMCVVMx
CzAJBgNVBAgMAkNBMREwDwYDVQQHDAhTdGFuZm9yZDENMAsGA1UECgwEQk1JUjEO
MAwGA1UECwwFQ0VEQVIxHDAaBgNVBAMME21ldGFkYXRhY2VudGVyLm9yZ3gxJzAl
BgkqhkiG9w0BCQEWGG1ldGFkYXRhY2VudGVyQGdtYWlsLmNvbTAeFw0yMDEwMDYw
MDI3MDRaFw0yMzAxMDgwMDI3MDRaMIGFMQswCQYDVQQGEwJVUzELMAkGA1UECAwC
Q0ExDTALBgNVBAoMBEJNSVIxDjAMBgNVBAsMBUNFREFSMSEwHwYDVQQDDBhvcGVu
Lm1ldGFkYXRhY2VudGVyLm9yZ3gxJzAlBgkqhkiG9w0BCQEWGG1ldGFkYXRhY2Vu
dGVyQGdtYWlsLmNvbTCCASIwDQYJKoZIhvcNAQEBBQADggEPADCCAQoCggEBANVm
AucWEflalIK2/AG7l7FtEVMLFFTV3buB0XuJqlsk4Fys0Y+RbZXQqb1bFSrXYl1b
eFbhnb0db0u/q2OWin4BYiKFVSD8TCeN2a5/158Fs80Kc+5w6A6YCDUAZihj4aci
4U1fYpTVRX1se6NLwVpNKOe0PZ29v3tj/TnTIL02GpTU7K8iwwoDY7HKC8iOVh0Y
0pWRdYqYqjeo7HninI3u8xQb7ad+AE4q55z0BUwhi3AAwbcFZ3wK98z8cEtaY0Oa
3lFuZq2d5EmknqFTY3TxrmJ4plHRjesrw61LtcVgm7Fll+eLkqBvNLJHZX4+jLIO
KIYuLp6UMMHNm1WULv8CAwEAAaN7MHkwCQYDVR0TBAIwADAsBglghkgBhvhCAQ0E
HxYdT3BlblNTTCBHZW5lcmF0ZWQgQ2VydGlmaWNhdGUwHQYDVR0OBBYEFN32su2H
FoTtWVgn2qQMP8m0GLkuMB8GA1UdIwQYMBaAFHejMXopLio9qiaTx+GOCS4wiA+W
MA0GCSqGSIb3DQEBCwUAA4ICAQCzxwY6L/jAR6aguHQNDjIAWncyapNJofz8jRUb
LAcr2giOnFrxr1VOb7ezuBZsi8pia73yMCjGeBpB8hQPKHJajXZwRES89UHgONqF
6XC9s9S+GdK/Byrl5T0rbGtkQ8/q51eWmDz1L1kVJSAsLHdtmlsfY4aSI0Wwhjuv
6am/oVZEaMl1ZOdYyb/sMMYgTmbIF4IITfotr2Pk8WzmsNE2VxtuvNpqurTh7nBa
k88i1lHYpIaPXRWjpxoZ0ucOp6tgNvG9rB9r7WPg4eARlXjZdG/u1jiv/SsBavL4
1avPgG3lh1e7EmkcdyqrVvtKkyT+vmn1qfRNUHw4QV3BoZCXu4CXZJDcxit8nSkL
y9Mjauz/8Uar0Tk7Lylkku9VjCYUnu9pKjJVm8Z2DWijqPqZ6NdHReN7o3oBYnmj
9KNqslRQcH/zcwGzVsKBPXl9vc8JtBz1gF2kXcz63ZdKqZoy0SL2bADIH7RNPamX
5yTlaf9D0mLcONEELlz4Lo/yyZZZvdsslDTopcIwdNC7N3DqBiVETOkDsxQ2E1gZ
NA3gxwQj0MwQl8vDDZ9nj+ppsHpIPTR0+nxkBfbNdf2lk1JyYfk2mLV6qYXCVDbi
vIPcMN2ieY15gOESvQVhbWScRnf52tnPxijrHeeGGaTRXMO1dNHijMJmWHJIj9iP
fGumJQ==
-----END CERTIFICATE-----
