Certificate:
    Data:
        Version: 3 (0x2)
        Serial Number: 13 (0xd)
        Signature Algorithm: sha256WithRSAEncryption
        Issuer: C=US, ST=CA, L=Stanford, O=BMIR, OU=CEDAR, CN=metadatacenter.orgx/emailAddress=metadatacenter@gmail.com
        Validity
            Not Before: Oct  6 00:36:26 2020 GMT
            Not After : Jan  8 00:36:26 2023 GMT
        Subject: C=US, ST=CA, O=BMIR, OU=CEDAR, CN=submission.metadatacenter.orgx/emailAddress=metadatacenter@gmail.com
        Subject Public Key Info:
            Public Key Algorithm: rsaEncryption
                RSA Public-Key: (2048 bit)
                Modulus:
                    00:c0:11:67:e2:59:22:b6:37:1b:ba:8c:55:49:92:
                    08:34:b9:e4:be:ea:5f:34:c0:e5:56:22:75:e5:0b:
                    c6:87:a6:33:c0:ec:e2:ad:64:23:c9:ab:62:b9:84:
                    6d:62:ef:9d:c5:af:e2:03:8c:74:5b:2d:66:f2:bb:
                    f4:00:a3:34:7b:73:21:7b:57:3b:ea:26:c7:bf:1c:
                    fc:fc:63:e8:f7:2b:54:74:d5:1d:67:50:65:2a:28:
                    e7:ef:e7:73:36:fb:d6:68:3a:91:61:94:b4:bd:fa:
                    6e:28:ae:65:7e:73:67:e4:b2:f8:bc:28:b7:20:68:
                    5b:7c:36:fa:54:c5:90:d3:32:0f:3d:a6:d6:00:bb:
                    3f:70:46:7a:b4:0a:4c:14:dc:9c:02:6c:1e:cf:7b:
                    82:2e:a5:1e:de:e5:6d:da:43:dd:a8:95:ed:80:d5:
                    83:fd:e7:45:05:41:9f:98:ea:84:49:22:71:c3:05:
                    a6:15:df:b4:03:5a:23:dc:08:a3:eb:15:69:78:a3:
                    63:3d:91:db:78:cc:49:13:e1:d6:3d:10:77:e5:f7:
                    b2:2e:0c:a3:d9:a1:88:83:56:4a:91:ac:25:e4:ee:
                    36:d5:b5:44:3d:98:71:e7:d3:c0:2d:a3:9c:4e:41:
                    a9:f8:28:78:f1:31:07:b1:df:5b:32:b5:a9:3a:af:
                    ce:b9
                Exponent: 65537 (0x10001)
        X509v3 extensions:
            X509v3 Basic Constraints: 
                CA:FALSE
            Netscape Comment: 
                OpenSSL Generated Certificate
            X509v3 Subject Key Identifier: 
                E9:FA:74:8F:C0:76:D6:B7:5E:68:E6:33:E0:21:D4:50:A3:35:88:2F
            X509v3 Authority Key Identifier: 
                keyid:77:A3:31:7A:29:2E:2A:3D:AA:26:93:C7:E1:8E:09:2E:30:88:0F:96

    Signature Algorithm: sha256WithRSAEncryption
         7d:37:ec:e2:9c:44:01:62:2b:2c:1f:95:df:4b:a7:94:73:c6:
         fe:03:57:b4:6c:1c:18:61:f4:78:fb:8a:ee:3b:b8:3a:3e:36:
         4a:12:bc:6d:f8:cc:0b:6c:a2:4c:0c:c0:76:8e:8c:b1:7e:54:
         fe:b2:27:98:d5:94:02:21:f8:88:e2:d5:6f:9c:a9:04:38:9f:
         57:85:b1:7b:3b:e7:d7:f6:ec:4e:4f:0a:18:f2:43:fb:f8:65:
         05:7d:1e:e1:17:9a:3f:02:e8:41:08:3b:3f:0e:4e:02:f8:43:
         23:2f:c0:3e:38:4f:98:ce:30:7a:68:c7:06:4f:6c:1b:1a:3f:
         6b:1f:4c:c2:60:b9:be:8d:c3:0a:17:37:ff:93:95:d8:82:b2:
         08:38:fd:d4:fb:7c:ae:a9:6d:5f:c0:80:0a:db:70:dd:71:f0:
         c4:43:ab:ca:d7:a5:eb:da:e9:5e:1e:dc:ed:5a:2c:08:25:4f:
         26:f3:6c:82:19:b2:70:5c:67:ad:71:b8:c8:d7:ff:45:86:e2:
         2c:f4:d4:ee:87:ec:51:43:49:4b:50:67:a1:a4:6b:f7:b4:a5:
         92:c8:05:33:fd:0b:f8:92:7a:a1:e8:84:3f:f7:ba:b6:0e:a9:
         18:c4:63:80:d8:ff:bd:2e:15:27:09:50:60:fd:0a:f0:0b:9a:
         e9:02:3c:e4:7c:cd:02:70:c9:af:a7:18:69:4c:27:c2:c5:f8:
         c9:28:fe:99:c4:97:07:67:78:78:ee:a3:40:73:89:6d:36:6c:
         37:d2:e2:cf:94:f2:3a:82:75:fe:aa:db:f5:56:32:20:92:46:
         98:39:da:32:c5:3b:a3:a3:96:b2:b3:42:86:b6:ab:69:1f:2b:
         91:e5:22:d3:54:40:06:0b:7b:1d:cc:a2:f6:ce:38:4b:76:01:
         f9:da:6a:69:3b:2a:21:94:27:7b:1b:60:fd:80:2a:4b:39:3c:
         a5:7e:4f:e2:ac:b4:f6:35:c3:6c:21:0a:45:1b:9c:b5:5c:e5:
         b6:98:c0:c9:cb:ea:50:64:82:18:de:21:38:7e:b2:7c:2b:b0:
         89:80:be:26:d9:de:48:d5:34:73:59:07:cb:83:3e:7b:9a:f0:
         ef:2b:ce:d5:13:45:07:a9:41:01:8c:7c:e5:7c:74:3e:47:22:
         f1:01:7e:3e:75:17:80:54:ea:6f:b0:69:44:fb:0c:44:e9:cb:
         30:f8:57:06:5b:a7:2a:71:03:16:6a:c3:d2:7b:bf:5a:50:ee:
         bd:eb:df:9c:a9:21:ac:66:ca:c3:02:68:2a:5c:02:be:cd:1b:
         be:a8:ac:1d:bf:0f:68:eb:dd:a5:1b:7c:af:5b:d8:ec:fe:37:
         ca:51:8e:83:ff:ea:56:f6
-----BEGIN CERTIFICATE-----
MIIFFjCCAv6gAwIBAgIBDTANBgkqhkiG9w0BAQsFADCBkzELMAkGA1UEBhMCVVMx
CzAJBgNVBAgMAkNBMREwDwYDVQQHDAhTdGFuZm9yZDENMAsGA1UECgwEQk1JUjEO
MAwGA1UECwwFQ0VEQVIxHDAaBgNVBAMME21ldGFkYXRhY2VudGVyLm9yZ3gxJzAl
BgkqhkiG9w0BCQEWGG1ldGFkYXRhY2VudGVyQGdtYWlsLmNvbTAeFw0yMDEwMDYw
MDM2MjZaFw0yMzAxMDgwMDM2MjZaMIGLMQswCQYDVQQGEwJVUzELMAkGA1UECAwC
Q0ExDTALBgNVBAoMBEJNSVIxDjAMBgNVBAsMBUNFREFSMScwJQYDVQQDDB5zdWJt
aXNzaW9uLm1ldGFkYXRhY2VudGVyLm9yZ3gxJzAlBgkqhkiG9w0BCQEWGG1ldGFk
YXRhY2VudGVyQGdtYWlsLmNvbTCCASIwDQYJKoZIhvcNAQEBBQADggEPADCCAQoC
ggEBAMARZ+JZIrY3G7qMVUmSCDS55L7qXzTA5VYideULxoemM8Ds4q1kI8mrYrmE
bWLvncWv4gOMdFstZvK79ACjNHtzIXtXO+omx78c/Pxj6PcrVHTVHWdQZSoo5+/n
czb71mg6kWGUtL36biiuZX5zZ+Sy+LwotyBoW3w2+lTFkNMyDz2m1gC7P3BGerQK
TBTcnAJsHs97gi6lHt7lbdpD3aiV7YDVg/3nRQVBn5jqhEkiccMFphXftANaI9wI
o+sVaXijYz2R23jMSRPh1j0Qd+X3si4Mo9mhiINWSpGsJeTuNtW1RD2YcefTwC2j
nE5BqfgoePExB7HfWzK1qTqvzrkCAwEAAaN7MHkwCQYDVR0TBAIwADAsBglghkgB
hvhCAQ0EHxYdT3BlblNTTCBHZW5lcmF0ZWQgQ2VydGlmaWNhdGUwHQYDVR0OBBYE
FOn6dI/Adta3XmjmM+Ah1FCjNYgvMB8GA1UdIwQYMBaAFHejMXopLio9qiaTx+GO
CS4wiA+WMA0GCSqGSIb3DQEBCwUAA4ICAQB9N+zinEQBYissH5XfS6eUc8b+A1e0
bBwYYfR4+4ruO7g6PjZKErxt+MwLbKJMDMB2joyxflT+sieY1ZQCIfiI4tVvnKkE
OJ9XhbF7O+fX9uxOTwoY8kP7+GUFfR7hF5o/AuhBCDs/Dk4C+EMjL8A+OE+YzjB6
aMcGT2wbGj9rH0zCYLm+jcMKFzf/k5XYgrIIOP3U+3yuqW1fwIAK23DdcfDEQ6vK
16Xr2uleHtztWiwIJU8m82yCGbJwXGetcbjI1/9FhuIs9NTuh+xRQ0lLUGehpGv3
tKWSyAUz/Qv4knqh6IQ/97q2DqkYxGOA2P+9LhUnCVBg/QrwC5rpAjzkfM0CcMmv
pxhpTCfCxfjJKP6ZxJcHZ3h47qNAc4ltNmw30uLPlPI6gnX+qtv1VjIgkkaYOdoy
xTujo5ays0KGtqtpHyuR5SLTVEAGC3sdzKL2zjhLdgH52mppOyohlCd7G2D9gCpL
OTylfk/irLT2NcNsIQpFG5y1XOW2mMDJy+pQZIIY3iE4frJ8K7CJgL4m2d5I1TRz
WQfLgz57mvDvK87VE0UHqUEBjHzlfHQ+RyLxAX4+dReAVOpvsGlE+wxE6csw+FcG
W6cqcQMWasPSe79aUO6969+cqSGsZsrDAmgqXAK+zRu+qKwdvw9o692lG3yvW9js
/jfKUY6D/+pW9g==
-----END CERTIFICATE-----
