Certificate:
    Data:
        Version: 3 (0x2)
        Serial Number: 11 (0xb)
    Signature Algorithm: sha256WithRSAEncryption
        Issuer: C=US, ST=California, L=Stanford, O=BMIR, OU=CEDAR, CN=metadatacenter.orgx/emailAddress=metadatacenter@gmail.com
        Validity
            Not Before: Jun 11 23:35:27 2018 GMT
            Not After : Jun  8 23:35:27 2028 GMT
        Subject: C=US, ST=California, O=BMIR, OU=CEDAR, CN=submission.metadatacenter.orgx/emailAddress=metadatacenter@gmail.com
        Subject Public Key Info:
            Public Key Algorithm: rsaEncryption
                Public-Key: (2048 bit)
                Modulus:
                    00:c4:b8:29:ec:4c:1f:ba:91:35:ff:de:b3:e9:3c:
                    4c:94:8e:c7:64:94:4e:dc:88:1a:31:81:af:de:44:
                    f6:45:99:c1:7a:a2:3b:d6:50:3a:9d:ed:35:3c:38:
                    32:4a:48:ff:57:30:2d:a0:e5:03:5e:b5:73:80:3e:
                    60:58:d0:ed:88:a4:e5:78:a4:2a:5b:be:41:05:cc:
                    f9:30:ab:1f:5d:78:49:71:06:96:f3:e6:c8:13:30:
                    7c:10:2e:58:de:8f:d7:16:23:69:57:36:62:28:b4:
                    4b:73:d2:e9:ef:4f:08:fd:33:90:ec:ce:56:ce:34:
                    a1:0d:44:a7:f2:2d:ec:0b:0b:2e:1b:0b:a6:15:61:
                    1b:6a:f8:d2:82:29:71:4d:ed:6a:10:60:47:25:ad:
                    07:d8:3f:0d:54:01:30:d5:a8:cf:ec:ed:a0:fd:41:
                    88:4b:d5:5b:bf:88:be:00:c1:8a:39:f9:ba:b6:fd:
                    b5:64:c1:c1:f8:c3:84:fb:13:50:ec:eb:4c:39:93:
                    82:04:d0:cd:db:3a:54:26:0b:c6:10:b9:7c:7d:eb:
                    9d:75:ee:43:12:38:c9:7e:e1:0b:b9:45:c5:42:1b:
                    c8:e2:ce:ef:20:90:bd:71:64:ac:01:df:69:32:8a:
                    a3:c4:10:2d:4f:ad:dd:37:52:fc:31:2f:6f:9c:d6:
                    ce:17
                Exponent: 65537 (0x10001)
        X509v3 extensions:
            X509v3 Basic Constraints: 
                CA:FALSE
            Netscape Comment: 
                OpenSSL Generated Certificate
            X509v3 Subject Key Identifier: 
                66:D7:8D:F2:9F:42:23:8B:8E:4C:21:61:FF:E8:2F:CB:C1:DA:3A:6C
            X509v3 Authority Key Identifier: 
                keyid:FB:A7:23:D3:57:E6:17:E1:D9:AF:FE:71:2C:97:E1:EA:94:5D:FC:D6

            X509v3 Subject Alternative Name: 
                DNS:*.metadatacenter.orgx
    Signature Algorithm: sha256WithRSAEncryption
         be:bd:1e:39:a5:89:fc:9d:5f:32:28:9d:02:91:fd:84:f2:f2:
         3a:6f:d1:cb:98:6e:69:50:3f:10:1a:c9:d8:60:ce:4d:81:e3:
         7a:e8:90:8f:f2:50:28:c3:8a:bb:de:5b:b4:3f:96:36:16:15:
         4a:89:0d:71:54:38:df:a0:b8:2d:39:84:6c:41:b7:6c:fb:4e:
         68:c5:d0:9d:c9:ce:30:90:bc:f0:4c:19:a5:8a:fd:20:bd:04:
         22:32:98:be:c0:5a:ea:c1:55:17:ee:7e:e8:02:a1:65:8c:78:
         9c:d3:69:17:e2:21:a5:d4:10:44:73:4b:dd:9f:97:b0:00:d4:
         e4:67:de:0f:89:29:d9:d9:91:af:6a:84:35:a1:a7:b3:b7:1c:
         05:fd:e8:67:b4:10:fb:7d:30:a9:b8:2c:b4:6e:38:cc:ad:bd:
         23:0c:f9:74:06:05:c5:7e:ce:e4:3b:69:13:cb:15:3d:3b:f0:
         b9:76:93:c9:f3:49:c4:d1:2b:cc:c4:47:6f:a3:9c:a0:bf:f1:
         d9:62:c4:c7:15:79:7d:80:a1:3c:b0:28:9b:ef:6d:2d:2f:7a:
         17:47:80:fa:1c:62:69:a2:16:e9:3d:89:7d:47:15:26:91:c1:
         5e:9c:a3:af:1f:c9:9d:d4:3d:61:b9:08:7f:bb:f3:9b:1b:14:
         49:4d:50:a8:f8:ef:13:5d:a0:24:72:aa:99:4f:74:bf:98:40:
         14:ed:22:6a:70:ae:c8:19:0b:fe:7c:6b:7b:06:23:78:9a:23:
         0e:71:f1:a8:47:5d:05:ef:d5:38:6f:5d:7d:59:98:e9:94:bb:
         89:71:95:a3:a7:0e:86:a9:76:43:89:20:90:6e:b2:21:31:3d:
         77:1a:6f:0f:43:58:b7:3e:fe:bd:ea:d3:24:d1:0e:46:da:57:
         1c:30:ec:6d:03:0d:17:b0:e9:4d:db:ad:f0:38:4e:7b:e3:91:
         a9:fd:20:d3:36:7e:c5:78:72:60:09:e0:c0:30:ef:fd:2c:ff:
         cf:60:9f:74:e5:e9:94:f8:26:9e:8c:36:bc:80:ed:67:6b:0d:
         14:2a:cb:23:d8:61:0b:3b:b3:68:db:f7:9a:43:b1:9f:f2:cb:
         b6:66:ef:4f:f5:f7:33:25:13:5b:27:21:d0:6e:18:1a:88:22:
         b2:58:68:e4:ad:6a:2f:c7:55:4a:fb:70:09:20:fd:8d:0f:10:
         70:f7:d1:a7:d2:01:6a:63:21:95:c6:17:88:ab:8a:bf:7b:9e:
         a7:b5:b8:db:7b:5e:31:20:30:0d:bb:98:d9:d6:0c:5c:c1:87:
         42:21:90:b9:25:cf:c6:13:10:76:ca:39:00:88:97:bb:df:17:
         d1:9e:11:27:44:92:89:84
-----BEGIN CERTIFICATE-----
MIIFSjCCAzKgAwIBAgIBCzANBgkqhkiG9w0BAQsFADCBmzELMAkGA1UEBhMCVVMx
EzARBgNVBAgMCkNhbGlmb3JuaWExETAPBgNVBAcMCFN0YW5mb3JkMQ0wCwYDVQQK
DARCTUlSMQ4wDAYDVQQLDAVDRURBUjEcMBoGA1UEAwwTbWV0YWRhdGFjZW50ZXIu
b3JneDEnMCUGCSqGSIb3DQEJARYYbWV0YWRhdGFjZW50ZXJAZ21haWwuY29tMB4X
DTE4MDYxMTIzMzUyN1oXDTI4MDYwODIzMzUyN1owgZMxCzAJBgNVBAYTAlVTMRMw
EQYDVQQIDApDYWxpZm9ybmlhMQ0wCwYDVQQKDARCTUlSMQ4wDAYDVQQLDAVDRURB
UjEnMCUGA1UEAwwec3VibWlzc2lvbi5tZXRhZGF0YWNlbnRlci5vcmd4MScwJQYJ
KoZIhvcNAQkBFhhtZXRhZGF0YWNlbnRlckBnbWFpbC5jb20wggEiMA0GCSqGSIb3
DQEBAQUAA4IBDwAwggEKAoIBAQDEuCnsTB+6kTX/3rPpPEyUjsdklE7ciBoxga/e
RPZFmcF6ojvWUDqd7TU8ODJKSP9XMC2g5QNetXOAPmBY0O2IpOV4pCpbvkEFzPkw
qx9deElxBpbz5sgTMHwQLljej9cWI2lXNmIotEtz0unvTwj9M5DszlbONKENRKfy
LewLCy4bC6YVYRtq+NKCKXFN7WoQYEclrQfYPw1UATDVqM/s7aD9QYhL1Vu/iL4A
wYo5+bq2/bVkwcH4w4T7E1Ds60w5k4IE0M3bOlQmC8YQuXx965117kMSOMl+4Qu5
RcVCG8jizu8gkL1xZKwB32kyiqPEEC1Prd03UvwxL2+c1s4XAgMBAAGjgZ4wgZsw
CQYDVR0TBAIwADAsBglghkgBhvhCAQ0EHxYdT3BlblNTTCBHZW5lcmF0ZWQgQ2Vy
dGlmaWNhdGUwHQYDVR0OBBYEFGbXjfKfQiOLjkwhYf/oL8vB2jpsMB8GA1UdIwQY
MBaAFPunI9NX5hfh2a/+cSyX4eqUXfzWMCAGA1UdEQQZMBeCFSoubWV0YWRhdGFj
ZW50ZXIub3JneDANBgkqhkiG9w0BAQsFAAOCAgEAvr0eOaWJ/J1fMiidApH9hPLy
Om/Ry5huaVA/EBrJ2GDOTYHjeuiQj/JQKMOKu95btD+WNhYVSokNcVQ436C4LTmE
bEG3bPtOaMXQncnOMJC88EwZpYr9IL0EIjKYvsBa6sFVF+5+6AKhZYx4nNNpF+Ih
pdQQRHNL3Z+XsADU5GfeD4kp2dmRr2qENaGns7ccBf3oZ7QQ+30wqbgstG44zK29
Iwz5dAYFxX7O5DtpE8sVPTvwuXaTyfNJxNErzMRHb6OcoL/x2WLExxV5fYChPLAo
m+9tLS96F0eA+hxiaaIW6T2JfUcVJpHBXpyjrx/JndQ9YbkIf7vzmxsUSU1QqPjv
E12gJHKqmU90v5hAFO0ianCuyBkL/nxrewYjeJojDnHxqEddBe/VOG9dfVmY6ZS7
iXGVo6cOhql2Q4kgkG6yITE9dxpvD0NYtz7+verTJNEORtpXHDDsbQMNF7DpTdut
8DhOe+ORqf0g0zZ+xXhyYAngwDDv/Sz/z2CfdOXplPgmnow2vIDtZ2sNFCrLI9hh
CzuzaNv3mkOxn/LLtmbvT/X3MyUTWych0G4YGogislho5K1qL8dVSvtwCSD9jQ8Q
cPfRp9IBamMhlcYXiKuKv3uep7W423teMSAwDbuY2dYMXMGHQiGQuSXPxhMQdso5
AIiXu98X0Z4RJ0SSiYQ=
-----END CERTIFICATE-----
