Certificate:
    Data:
        Version: 3 (0x2)
        Serial Number: 11 (0xb)
        Signature Algorithm: sha256WithRSAEncryption
        Issuer: C=US, ST=CA, L=Stanford, O=BMIR, OU=CEDAR, CN=metadatacenter.orgx/emailAddress=metadatacenter@gmail.com
        Validity
            Not Before: Oct  6 00:33:27 2020 GMT
            Not After : Jan  8 00:33:27 2023 GMT
        Subject: C=US, ST=CA, O=BMIR, OU=CEDAR, CN=resource.metadatacenter.orgx/emailAddress=metadatacenter@gmail.com
        Subject Public Key Info:
            Public Key Algorithm: rsaEncryption
                RSA Public-Key: (2048 bit)
                Modulus:
                    00:ba:fe:0e:43:b8:a7:19:eb:45:64:81:41:c1:50:
                    71:8c:c3:80:22:2e:25:92:af:99:4c:fb:ce:d7:e3:
                    79:79:dc:21:af:27:59:1c:75:9c:0f:ff:03:0c:b3:
                    14:39:ab:33:26:e7:f4:a9:55:6f:78:94:1b:f3:30:
                    8b:3e:b5:b6:bd:2b:9c:de:55:22:6b:37:1c:d4:c7:
                    b5:f0:b7:02:57:7c:ae:d2:10:2c:e2:a6:25:ca:fd:
                    8f:13:e3:86:a7:35:69:67:c1:ae:8c:fd:c7:14:d3:
                    49:4b:98:53:73:a0:a0:49:f1:e8:fb:ad:16:a7:cf:
                    fe:d7:8e:0a:16:6d:b7:cf:c7:c4:54:63:7c:58:ae:
                    b1:4e:03:7b:15:b9:85:e7:38:b0:a3:82:26:6e:25:
                    46:9e:ea:ee:48:3f:bd:50:41:64:dc:af:40:7b:f4:
                    f5:36:61:18:c1:95:ac:00:6c:d8:f5:3c:e8:ca:12:
                    21:e7:d5:b9:42:44:1e:df:e8:f1:8f:60:62:e6:64:
                    71:cb:f5:fd:d7:10:5c:a3:b9:1b:f2:97:f8:62:a7:
                    15:68:74:8b:1d:21:d3:75:73:7a:83:41:78:ba:13:
                    d3:9d:be:61:8d:f5:6a:ec:be:38:9e:7b:96:3e:cf:
                    85:18:e1:9c:56:21:fc:fd:ed:c0:1f:a9:6a:9b:ae:
                    33:af
                Exponent: 65537 (0x10001)
        X509v3 extensions:
            X509v3 Basic Constraints: 
                CA:FALSE
            Netscape Comment: 
                OpenSSL Generated Certificate
            X509v3 Subject Key Identifier: 
                BE:65:9D:A3:79:94:EF:AF:94:F8:24:78:7E:7E:2B:74:96:75:00:68
            X509v3 Authority Key Identifier: 
                keyid:77:A3:31:7A:29:2E:2A:3D:AA:26:93:C7:E1:8E:09:2E:30:88:0F:96

    Signature Algorithm: sha256WithRSAEncryption
         0f:09:30:d8:70:a4:75:74:de:f4:bd:22:0e:77:26:39:69:ff:
         72:76:5e:bf:f8:64:7d:0f:73:bc:69:eb:df:1e:3f:22:65:3b:
         39:e6:f2:b5:ec:bf:04:92:a6:06:12:92:cb:c4:bb:8e:54:28:
         24:2f:51:f3:41:eb:5c:a7:21:46:9b:80:71:9e:56:49:9f:a6:
         ef:42:99:d7:45:60:47:7e:39:f4:e2:3b:b0:6e:c4:1d:d7:4b:
         3d:2b:91:6c:bd:19:4f:f4:77:f3:94:8d:c7:19:dc:04:1c:28:
         eb:40:81:e5:24:eb:9f:15:f5:c3:bd:59:9f:fe:a0:b8:4a:fc:
         0a:23:b2:f0:61:1c:8f:e3:82:b4:b2:d8:7e:7a:c8:d0:dc:1d:
         f6:64:5c:67:a9:ce:e9:13:38:05:cc:2a:2e:5e:8d:0f:90:b5:
         a8:1b:3d:77:86:50:0d:5c:46:cd:06:5a:d3:f9:6d:15:e1:44:
         05:46:45:ed:7f:f7:2e:08:f9:64:bd:9d:69:7d:0f:d6:e6:d9:
         d7:92:a3:37:37:ed:4c:7c:53:24:af:bc:d7:d0:ec:71:0f:0a:
         1c:b2:d9:32:84:60:a8:e5:c2:e8:88:a6:9e:d6:30:8e:6a:26:
         39:96:38:f8:d1:99:9d:d4:c2:fb:94:b3:76:12:ba:01:e9:a0:
         09:0c:95:a5:70:e9:dc:59:df:8f:5e:4b:33:19:29:83:ce:20:
         26:75:24:3b:4f:03:c3:85:18:a7:ee:9b:36:ae:6e:e8:57:31:
         21:31:aa:53:2e:3f:2b:a7:19:cf:6f:df:a4:ca:10:31:6a:94:
         a6:fe:dd:a7:0a:41:17:63:39:05:74:50:88:02:a5:ee:68:9b:
         11:92:3a:8b:31:1f:e5:68:d1:6c:ad:89:28:25:2a:dc:ce:a0:
         12:61:dc:db:be:68:15:49:7a:f6:20:cd:9d:55:06:8a:4c:e0:
         66:b6:77:c4:d3:c3:57:92:35:35:d7:fd:eb:87:bd:1b:2d:b6:
         d9:58:79:a9:6b:1c:fc:57:86:a7:8b:af:ee:e7:c4:30:02:15:
         ae:24:52:a8:88:e3:08:44:01:f3:76:ce:8f:41:ff:77:fa:ee:
         a3:e4:bf:17:87:2a:7d:0c:c5:57:a0:ab:a9:b6:cc:b8:1a:26:
         1b:41:a0:11:40:01:1e:8a:20:f4:eb:72:6b:3f:81:91:91:f2:
         e0:b7:36:8b:94:4f:9d:2b:58:8b:ca:7b:75:5b:c6:71:46:8d:
         ea:08:1b:67:40:56:03:8d:3b:d4:86:f6:bc:03:40:48:41:5e:
         36:d1:bf:a4:43:0c:75:61:37:0e:c4:6a:88:67:c8:6e:fa:3b:
         d3:fa:ad:3f:a6:88:d9:8f
-----BEGIN CERTIFICATE-----
MIIFFDCCAvygAwIBAgIBCzANBgkqhkiG9w0BAQsFADCBkzELMAkGA1UEBhMCVVMx
CzAJBgNVBAgMAkNBMREwDwYDVQQHDAhTdGFuZm9yZDENMAsGA1UECgwEQk1JUjEO
MAwGA1UECwwFQ0VEQVIxHDAaBgNVBAMME21ldGFkYXRhY2VudGVyLm9yZ3gxJzAl
BgkqhkiG9w0BCQEWGG1ldGFkYXRhY2VudGVyQGdtYWlsLmNvbTAeFw0yMDEwMDYw
MDMzMjdaFw0yMzAxMDgwMDMzMjdaMIGJMQswCQYDVQQGEwJVUzELMAkGA1UECAwC
Q0ExDTALBgNVBAoMBEJNSVIxDjAMBgNVBAsMBUNFREFSMSUwIwYDVQQDDBxyZXNv
dXJjZS5tZXRhZGF0YWNlbnRlci5vcmd4MScwJQYJKoZIhvcNAQkBFhhtZXRhZGF0
YWNlbnRlckBnbWFpbC5jb20wggEiMA0GCSqGSIb3DQEBAQUAA4IBDwAwggEKAoIB
AQC6/g5DuKcZ60VkgUHBUHGMw4AiLiWSr5lM+87X43l53CGvJ1kcdZwP/wMMsxQ5
qzMm5/SpVW94lBvzMIs+tba9K5zeVSJrNxzUx7XwtwJXfK7SECzipiXK/Y8T44an
NWlnwa6M/ccU00lLmFNzoKBJ8ej7rRanz/7XjgoWbbfPx8RUY3xYrrFOA3sVuYXn
OLCjgiZuJUae6u5IP71QQWTcr0B79PU2YRjBlawAbNj1POjKEiHn1blCRB7f6PGP
YGLmZHHL9f3XEFyjuRvyl/hipxVodIsdIdN1c3qDQXi6E9OdvmGN9Wrsvjiee5Y+
z4UY4ZxWIfz97cAfqWqbrjOvAgMBAAGjezB5MAkGA1UdEwQCMAAwLAYJYIZIAYb4
QgENBB8WHU9wZW5TU0wgR2VuZXJhdGVkIENlcnRpZmljYXRlMB0GA1UdDgQWBBS+
ZZ2jeZTvr5T4JHh+fit0lnUAaDAfBgNVHSMEGDAWgBR3ozF6KS4qPaomk8fhjgku
MIgPljANBgkqhkiG9w0BAQsFAAOCAgEADwkw2HCkdXTe9L0iDncmOWn/cnZev/hk
fQ9zvGnr3x4/ImU7Oebytey/BJKmBhKSy8S7jlQoJC9R80HrXKchRpuAcZ5WSZ+m
70KZ10VgR3459OI7sG7EHddLPSuRbL0ZT/R385SNxxncBBwo60CB5STrnxX1w71Z
n/6guEr8CiOy8GEcj+OCtLLYfnrI0Nwd9mRcZ6nO6RM4BcwqLl6ND5C1qBs9d4ZQ
DVxGzQZa0/ltFeFEBUZF7X/3Lgj5ZL2daX0P1ubZ15KjNzftTHxTJK+819DscQ8K
HLLZMoRgqOXC6IimntYwjmomOZY4+NGZndTC+5SzdhK6AemgCQyVpXDp3Fnfj15L
Mxkpg84gJnUkO08Dw4UYp+6bNq5u6FcxITGqUy4/K6cZz2/fpMoQMWqUpv7dpwpB
F2M5BXRQiAKl7mibEZI6izEf5WjRbK2JKCUq3M6gEmHc275oFUl69iDNnVUGikzg
ZrZ3xNPDV5I1Ndf964e9Gy222Vh5qWsc/FeGp4uv7ufEMAIVriRSqIjjCEQB83bO
j0H/d/ruo+S/F4cqfQzFV6CrqbbMuBomG0GgEUABHoog9Otyaz+BkZHy4Lc2i5RP
nStYi8p7dVvGcUaN6ggbZ0BWA4071Ib2vANASEFeNtG/pEMMdWE3DsRqiGfIbvo7
0/qtP6aI2Y8=
-----END CERTIFICATE-----
