Certificate:
    Data:
        Version: 3 (0x2)
        Serial Number: 9 (0x9)
    Signature Algorithm: sha256WithRSAEncryption
        Issuer: C=US, ST=California, L=Stanford, O=BMIR, OU=CEDAR, CN=metadatacenter.orgx/emailAddress=metadatacenter@gmail.com
        Validity
            Not Before: Jun 11 23:33:17 2018 GMT
            Not After : Jun  8 23:33:17 2028 GMT
        Subject: C=US, ST=California, O=BMIR, OU=CEDAR, CN=resource.metadatacenter.orgx/emailAddress=metadatacenter@gmail.com
        Subject Public Key Info:
            Public Key Algorithm: rsaEncryption
                Public-Key: (2048 bit)
                Modulus:
                    00:bf:dc:fc:08:f4:2f:d3:9f:6d:b3:cf:c7:57:d9:
                    36:c9:85:f2:49:c6:69:d7:ea:2c:d5:3d:39:1d:1e:
                    9a:91:79:66:9b:97:9f:1e:1c:46:92:67:0e:61:15:
                    98:df:1a:eb:f9:7b:4f:67:ef:c0:9c:6f:1e:7d:9a:
                    c8:83:0c:82:59:e5:50:b7:c1:d8:d8:7b:31:d4:94:
                    79:4c:96:b5:af:dd:43:db:14:a6:c7:9c:07:93:da:
                    cf:e4:ee:27:65:cf:51:bc:0f:96:51:76:77:c2:04:
                    0f:c2:65:34:cf:cb:3f:82:63:e1:72:22:fd:9a:28:
                    7e:7b:38:75:e0:f2:1e:b5:de:35:01:bd:33:ab:dc:
                    51:82:51:b2:b5:40:41:c8:2b:ac:af:a1:0d:cc:70:
                    8d:f4:33:22:45:31:f0:36:61:bf:40:55:34:36:c9:
                    82:e1:92:1a:95:3b:68:07:01:15:bb:2b:ff:bd:4e:
                    52:f6:28:c2:5c:ea:90:fb:5c:b8:af:a4:28:d2:20:
                    a4:26:55:77:a3:d8:2e:a5:45:f0:18:f9:32:48:cf:
                    5f:30:4b:46:fd:a8:82:fc:27:74:25:03:12:25:71:
                    21:4f:b2:11:bc:58:06:44:3b:da:5b:62:28:81:78:
                    e5:df:d7:cc:a0:f7:3f:21:d4:65:74:ff:d7:fa:a1:
                    42:8f
                Exponent: 65537 (0x10001)
        X509v3 extensions:
            X509v3 Basic Constraints: 
                CA:FALSE
            Netscape Comment: 
                OpenSSL Generated Certificate
            X509v3 Subject Key Identifier: 
                29:8E:2B:1F:E2:A6:33:4E:BF:49:9C:49:2A:4C:B6:45:A2:33:8F:A1
            X509v3 Authority Key Identifier: 
                keyid:FB:A7:23:D3:57:E6:17:E1:D9:AF:FE:71:2C:97:E1:EA:94:5D:FC:D6

            X509v3 Subject Alternative Name: 
                DNS:*.metadatacenter.orgx
    Signature Algorithm: sha256WithRSAEncryption
         10:9d:b8:01:bc:68:8a:db:39:77:28:0e:f4:0d:4f:16:7d:ac:
         fe:7b:e1:fe:7e:f6:af:ed:da:45:96:ba:8d:c1:14:b3:6c:f3:
         b8:21:c4:6b:0a:65:30:d3:29:3a:b1:b8:4e:26:07:9f:b5:db:
         70:e5:6f:36:da:7e:29:44:fb:43:29:e4:8a:d4:5f:3e:0d:77:
         e6:28:bb:de:47:f1:93:b8:e1:ba:b9:c6:f9:98:0e:0e:61:54:
         c7:5e:ce:ac:d8:73:b7:74:ed:d7:d0:76:f6:2f:7f:84:41:94:
         13:6d:12:29:32:76:e7:e5:c6:92:96:23:f7:07:b6:78:5d:cf:
         ad:26:e6:4f:63:a9:89:4b:79:a9:25:35:56:ed:28:fd:09:4e:
         f4:18:bc:8d:35:98:2c:b2:7a:37:e6:a3:6a:eb:5d:84:ec:01:
         5a:83:4c:16:32:35:5a:9a:07:86:bb:d9:99:30:34:aa:2d:35:
         b5:0c:09:c1:24:be:8f:63:30:a8:c7:39:85:82:c2:85:fa:b7:
         03:47:6b:ee:ab:00:c8:33:ce:f4:c6:92:b0:a5:18:61:77:8a:
         ea:b2:72:a9:25:33:de:96:dc:33:7e:66:cd:e5:76:ee:84:74:
         8a:8d:e9:e9:d6:5d:72:4f:cf:61:6b:a2:b2:46:56:38:06:49:
         1d:a3:93:36:79:b3:e6:67:a1:ee:03:e8:55:84:fe:0f:7a:27:
         a4:81:36:27:50:94:4c:5e:79:22:ac:30:58:48:62:cc:a7:5f:
         53:cb:47:01:f3:b3:6c:0c:ad:14:0f:69:47:d7:00:dd:c3:f7:
         ab:d1:ba:13:0e:b8:35:39:58:54:f6:22:5e:33:6b:af:d8:c0:
         97:a1:e4:a4:b0:60:56:3e:fe:d3:8d:84:53:ab:16:05:ed:53:
         5d:f3:47:85:11:20:87:c6:25:cf:91:10:a4:15:ca:5b:cd:c5:
         08:1e:5b:17:56:99:79:e0:86:74:ad:ba:a6:ee:c6:60:5e:60:
         c4:be:e3:8a:1e:e3:85:09:48:0e:ea:23:a2:7c:2a:2d:7a:bf:
         55:8d:3a:05:8a:f9:2c:b2:79:9a:86:b0:9f:2d:ec:3a:a6:65:
         ca:d8:11:a3:f8:c7:81:d1:08:fc:a9:95:22:f6:84:d7:d7:a6:
         81:70:19:80:7e:33:ce:87:d1:35:d0:b2:94:21:27:2c:28:52:
         85:34:a7:bb:55:e0:f3:a6:86:fa:d6:8e:37:a6:c7:28:d6:02:
         28:d0:e4:8b:4c:8b:c6:91:a7:88:36:5c:ff:a6:d7:47:4a:ca:
         18:25:14:70:db:a3:95:49:f8:81:32:30:6d:fa:9c:30:e7:ef:
         d3:6f:f5:dc:28:20:4f:9a
-----BEGIN CERTIFICATE-----
MIIFSDCCAzCgAwIBAgIBCTANBgkqhkiG9w0BAQsFADCBmzELMAkGA1UEBhMCVVMx
EzARBgNVBAgMCkNhbGlmb3JuaWExETAPBgNVBAcMCFN0YW5mb3JkMQ0wCwYDVQQK
DARCTUlSMQ4wDAYDVQQLDAVDRURBUjEcMBoGA1UEAwwTbWV0YWRhdGFjZW50ZXIu
b3JneDEnMCUGCSqGSIb3DQEJARYYbWV0YWRhdGFjZW50ZXJAZ21haWwuY29tMB4X
DTE4MDYxMTIzMzMxN1oXDTI4MDYwODIzMzMxN1owgZExCzAJBgNVBAYTAlVTMRMw
EQYDVQQIDApDYWxpZm9ybmlhMQ0wCwYDVQQKDARCTUlSMQ4wDAYDVQQLDAVDRURB
UjElMCMGA1UEAwwccmVzb3VyY2UubWV0YWRhdGFjZW50ZXIub3JneDEnMCUGCSqG
SIb3DQEJARYYbWV0YWRhdGFjZW50ZXJAZ21haWwuY29tMIIBIjANBgkqhkiG9w0B
AQEFAAOCAQ8AMIIBCgKCAQEAv9z8CPQv059ts8/HV9k2yYXyScZp1+os1T05HR6a
kXlmm5efHhxGkmcOYRWY3xrr+XtPZ+/AnG8efZrIgwyCWeVQt8HY2Hsx1JR5TJa1
r91D2xSmx5wHk9rP5O4nZc9RvA+WUXZ3wgQPwmU0z8s/gmPhciL9mih+ezh14PIe
td41Ab0zq9xRglGytUBByCusr6ENzHCN9DMiRTHwNmG/QFU0NsmC4ZIalTtoBwEV
uyv/vU5S9ijCXOqQ+1y4r6Qo0iCkJlV3o9gupUXwGPkySM9fMEtG/aiC/Cd0JQMS
JXEhT7IRvFgGRDvaW2IogXjl39fMoPc/IdRldP/X+qFCjwIDAQABo4GeMIGbMAkG
A1UdEwQCMAAwLAYJYIZIAYb4QgENBB8WHU9wZW5TU0wgR2VuZXJhdGVkIENlcnRp
ZmljYXRlMB0GA1UdDgQWBBQpjisf4qYzTr9JnEkqTLZFojOPoTAfBgNVHSMEGDAW
gBT7pyPTV+YX4dmv/nEsl+HqlF381jAgBgNVHREEGTAXghUqLm1ldGFkYXRhY2Vu
dGVyLm9yZ3gwDQYJKoZIhvcNAQELBQADggIBABCduAG8aIrbOXcoDvQNTxZ9rP57
4f5+9q/t2kWWuo3BFLNs87ghxGsKZTDTKTqxuE4mB5+123DlbzbafilE+0Mp5IrU
Xz4Nd+You95H8ZO44bq5xvmYDg5hVMdezqzYc7d07dfQdvYvf4RBlBNtEikydufl
xpKWI/cHtnhdz60m5k9jqYlLeaklNVbtKP0JTvQYvI01mCyyejfmo2rrXYTsAVqD
TBYyNVqaB4a72ZkwNKotNbUMCcEkvo9jMKjHOYWCwoX6twNHa+6rAMgzzvTGkrCl
GGF3iuqycqklM96W3DN+Zs3ldu6EdIqN6enWXXJPz2FrorJGVjgGSR2jkzZ5s+Zn
oe4D6FWE/g96J6SBNidQlExeeSKsMFhIYsynX1PLRwHzs2wMrRQPaUfXAN3D96vR
uhMOuDU5WFT2Il4za6/YwJeh5KSwYFY+/tONhFOrFgXtU13zR4URIIfGJc+REKQV
ylvNxQgeWxdWmXnghnStuqbuxmBeYMS+44oe44UJSA7qI6J8Ki16v1WNOgWK+Syy
eZqGsJ8t7DqmZcrYEaP4x4HRCPyplSL2hNfXpoFwGYB+M86H0TXQspQhJywoUoU0
p7tV4POmhvrWjjemxyjWAijQ5ItMi8aRp4g2XP+m10dKyhglFHDbo5VJ+IEyMG36
nDDn79Nv9dwoIE+a
-----END CERTIFICATE-----
