Certificate:
    Data:
        Version: 3 (0x2)
        Serial Number: 17 (0x11)
        Signature Algorithm: sha256WithRSAEncryption
        Issuer: C=US, ST=CA, L=Stanford, O=BMIR, OU=CEDAR, CN=metadatacenter.orgx/emailAddress=metadatacenter@gmail.com
        Validity
            Not Before: Oct  6 00:42:43 2020 GMT
            Not After : Jan  8 00:42:43 2023 GMT
        Subject: C=US, ST=CA, O=BMIR, OU=CEDAR, CN=worker.metadatacenter.orgx/emailAddress=metadatacenter@gmail.com
        Subject Public Key Info:
            Public Key Algorithm: rsaEncryption
                RSA Public-Key: (2048 bit)
                Modulus:
                    00:ae:bb:6d:4b:ae:f9:58:e0:8c:b0:75:2d:e6:c2:
                    bb:01:ab:2f:b1:bb:cb:ef:5f:19:42:0b:8a:2f:de:
                    c0:d1:3b:99:f6:99:cb:a6:02:89:38:90:ca:26:e5:
                    7d:35:43:e3:b5:1f:35:86:ef:d6:90:10:45:91:78:
                    9a:e1:69:6c:15:cf:9c:da:59:f7:fc:dc:cd:7a:16:
                    dc:ed:14:6e:de:66:6f:de:c5:bb:05:7b:16:72:05:
                    d6:35:21:67:8e:d6:06:20:c8:c7:dd:85:d5:fd:11:
                    0e:e9:38:84:b7:82:4d:61:72:33:d6:a0:fb:f0:a6:
                    88:03:2e:43:fa:e5:ab:5d:4c:66:14:45:16:59:62:
                    9f:b1:ce:d6:cc:6a:23:04:8a:a3:e9:cc:db:20:9e:
                    93:17:5b:1f:f9:7f:d6:07:1a:d9:ae:e2:b9:d2:df:
                    a7:7b:27:7b:6e:95:33:a8:0b:94:06:e1:58:c0:40:
                    f4:3f:30:15:06:ea:2b:d9:ff:f2:78:f8:bf:cc:9d:
                    24:89:df:d9:02:fc:40:cc:75:dc:0a:b6:0d:f5:b6:
                    99:ed:d1:e9:29:29:af:eb:34:86:04:57:8a:66:17:
                    b1:d4:56:c2:29:cb:8f:e3:f1:c0:c5:d0:f5:ea:a1:
                    f5:22:24:3e:ed:19:ef:f0:13:5f:39:1a:6d:27:fe:
                    9a:4b
                Exponent: 65537 (0x10001)
        X509v3 extensions:
            X509v3 Basic Constraints: 
                CA:FALSE
            Netscape Comment: 
                OpenSSL Generated Certificate
            X509v3 Subject Key Identifier: 
                DE:B0:9A:B8:C7:E0:61:58:D8:37:80:42:AC:D9:C0:B2:F0:89:F3:14
            X509v3 Authority Key Identifier: 
                keyid:77:A3:31:7A:29:2E:2A:3D:AA:26:93:C7:E1:8E:09:2E:30:88:0F:96

    Signature Algorithm: sha256WithRSAEncryption
         0c:be:fb:2b:1f:a2:a2:fd:a0:90:f4:7c:38:b0:ae:10:98:5b:
         1b:a9:75:2d:de:45:54:82:34:c0:38:af:a5:ae:bc:aa:ed:8f:
         d7:33:00:23:b3:1d:1c:e9:c3:1f:f6:b6:ee:17:d2:74:3c:8d:
         3a:38:cc:74:b6:37:8f:fb:1c:8f:8a:99:c9:fc:e7:4a:4f:15:
         22:97:8d:a2:d8:7c:7e:fc:83:08:a5:0d:9c:80:d7:69:6a:79:
         c2:87:37:36:93:49:0c:0b:e9:a1:82:fd:48:db:1a:f2:64:12:
         8b:af:68:ac:ac:1f:6e:71:84:9d:01:ec:89:1b:54:38:35:30:
         fb:a3:0c:91:9b:34:26:c1:58:66:93:ac:69:e4:52:f5:85:1c:
         80:b0:a4:43:ad:6f:1b:89:90:e4:60:90:73:0e:e3:c6:d0:bb:
         dd:c9:44:d6:fe:4f:77:aa:0f:10:2b:ec:c1:f5:d5:57:90:ad:
         01:f3:39:cf:ca:eb:01:a4:19:20:e0:d0:f7:18:8d:c0:e5:34:
         39:8a:55:ae:80:f7:e2:05:6c:d7:d7:77:a6:a5:6f:7b:a7:4c:
         83:bd:f6:f2:52:d7:fe:df:e9:1b:a0:cb:bb:16:11:82:69:06:
         94:ef:55:82:65:61:5c:ac:74:03:2f:d5:2a:13:c2:6d:a7:5c:
         1c:16:1a:60:7e:30:8b:5f:8f:d3:9c:8b:3d:a6:cc:df:48:47:
         97:66:c7:57:bf:47:ef:e2:96:9d:6c:3d:ab:bb:05:7a:3f:8f:
         2b:d2:2c:d8:01:c6:21:50:21:b2:7c:a6:4f:25:dc:ff:72:3d:
         dd:79:35:dc:44:ce:4c:c6:19:7f:65:46:fe:f0:68:dc:71:7c:
         e1:6f:3a:ab:d3:0e:36:49:c1:90:87:88:f9:8f:e0:d8:94:af:
         71:b9:38:63:99:ba:95:12:e9:cf:4c:83:f5:67:83:5b:b8:b3:
         d5:21:15:96:e1:16:b1:38:86:e6:dd:f2:74:23:b3:c4:c0:9a:
         28:39:e3:75:9d:38:9f:61:66:51:ba:9a:61:cf:ef:85:ec:80:
         8a:e6:d5:bf:16:19:89:da:cb:11:08:a5:66:2b:c5:4d:3f:7a:
         13:05:81:a5:05:43:cb:7c:fc:50:bd:00:9c:08:c9:e5:48:3f:
         7a:02:f2:ee:e0:b4:d5:08:fe:4b:5f:67:c7:0f:6e:7c:ea:14:
         5d:89:a4:1c:a2:6b:cb:8d:95:40:20:5a:96:c8:df:2a:e2:f0:
         1c:eb:f7:a0:be:12:c4:75:a4:2e:fb:61:68:56:cf:1f:94:1e:
         7b:57:2c:63:f4:90:37:45:1b:6b:ee:02:5b:60:c6:35:30:35:
         4c:60:68:ac:fa:35:75:df
-----BEGIN CERTIFICATE-----
MIIFEjCCAvqgAwIBAgIBETANBgkqhkiG9w0BAQsFADCBkzELMAkGA1UEBhMCVVMx
CzAJBgNVBAgMAkNBMREwDwYDVQQHDAhTdGFuZm9yZDENMAsGA1UECgwEQk1JUjEO
MAwGA1UECwwFQ0VEQVIxHDAaBgNVBAMME21ldGFkYXRhY2VudGVyLm9yZ3gxJzAl
BgkqhkiG9w0BCQEWGG1ldGFkYXRhY2VudGVyQGdtYWlsLmNvbTAeFw0yMDEwMDYw
MDQyNDNaFw0yMzAxMDgwMDQyNDNaMIGHMQswCQYDVQQGEwJVUzELMAkGA1UECAwC
Q0ExDTALBgNVBAoMBEJNSVIxDjAMBgNVBAsMBUNFREFSMSMwIQYDVQQDDBp3b3Jr
ZXIubWV0YWRhdGFjZW50ZXIub3JneDEnMCUGCSqGSIb3DQEJARYYbWV0YWRhdGFj
ZW50ZXJAZ21haWwuY29tMIIBIjANBgkqhkiG9w0BAQEFAAOCAQ8AMIIBCgKCAQEA
rrttS675WOCMsHUt5sK7AasvsbvL718ZQguKL97A0TuZ9pnLpgKJOJDKJuV9NUPj
tR81hu/WkBBFkXia4WlsFc+c2ln3/NzNehbc7RRu3mZv3sW7BXsWcgXWNSFnjtYG
IMjH3YXV/REO6TiEt4JNYXIz1qD78KaIAy5D+uWrXUxmFEUWWWKfsc7WzGojBIqj
6czbIJ6TF1sf+X/WBxrZruK50t+neyd7bpUzqAuUBuFYwED0PzAVBuor2f/yePi/
zJ0kid/ZAvxAzHXcCrYN9baZ7dHpKSmv6zSGBFeKZhex1FbCKcuP4/HAxdD16qH1
IiQ+7Rnv8BNfORptJ/6aSwIDAQABo3sweTAJBgNVHRMEAjAAMCwGCWCGSAGG+EIB
DQQfFh1PcGVuU1NMIEdlbmVyYXRlZCBDZXJ0aWZpY2F0ZTAdBgNVHQ4EFgQU3rCa
uMfgYVjYN4BCrNnAsvCJ8xQwHwYDVR0jBBgwFoAUd6MxeikuKj2qJpPH4Y4JLjCI
D5YwDQYJKoZIhvcNAQELBQADggIBAAy++ysfoqL9oJD0fDiwrhCYWxupdS3eRVSC
NMA4r6WuvKrtj9czACOzHRzpwx/2tu4X0nQ8jTo4zHS2N4/7HI+Kmcn850pPFSKX
jaLYfH78gwilDZyA12lqecKHNzaTSQwL6aGC/UjbGvJkEouvaKysH25xhJ0B7Ikb
VDg1MPujDJGbNCbBWGaTrGnkUvWFHICwpEOtbxuJkORgkHMO48bQu93JRNb+T3eq
DxAr7MH11VeQrQHzOc/K6wGkGSDg0PcYjcDlNDmKVa6A9+IFbNfXd6alb3unTIO9
9vJS1/7f6Rugy7sWEYJpBpTvVYJlYVysdAMv1SoTwm2nXBwWGmB+MItfj9Ociz2m
zN9IR5dmx1e/R+/ilp1sPau7BXo/jyvSLNgBxiFQIbJ8pk8l3P9yPd15NdxEzkzG
GX9lRv7waNxxfOFvOqvTDjZJwZCHiPmP4NiUr3G5OGOZupUS6c9Mg/Vng1u4s9Uh
FZbhFrE4hubd8nQjs8TAmig543WdOJ9hZlG6mmHP74XsgIrm1b8WGYnayxEIpWYr
xU0/ehMFgaUFQ8t8/FC9AJwIyeVIP3oC8u7gtNUI/ktfZ8cPbnzqFF2JpByia8uN
lUAgWpbI3yri8Bzr96C+EsR1pC77YWhWzx+UHntXLGP0kDdFG2vuAltgxjUwNUxg
aKz6NXXf
-----END CERTIFICATE-----
