Certificate:
    Data:
        Version: 3 (0x2)
        Serial Number: 20 (0x14)
        Signature Algorithm: sha256WithRSAEncryption
        Issuer: C=US, ST=CA, L=Stanford, O=BMIR, OU=CEDAR, CN=metadatacenter.orgx/emailAddress=metadatacenter@gmail.com
        Validity
            Not Before: Oct  6 06:50:54 2020 GMT
            Not After : Jan  8 06:50:54 2023 GMT
        Subject: C=US, ST=CA, O=BMIR, OU=CEDAR, CN=cedar.metadatacenter.orgx/emailAddress=metadatacenter@gmail.com
        Subject Public Key Info:
            Public Key Algorithm: rsaEncryption
                RSA Public-Key: (2048 bit)
                Modulus:
                    00:dd:a0:d7:0b:78:2f:50:d1:1a:e6:7c:21:d5:fd:
                    db:8e:f9:33:15:38:17:97:9b:30:1e:36:8e:67:47:
                    bf:03:16:cd:bb:70:e0:0c:e8:e0:e2:4e:92:89:c7:
                    0d:93:fa:e4:6f:23:eb:60:ba:c1:f2:ed:2f:1f:4a:
                    6f:5d:51:eb:c9:9d:a1:35:9c:9f:5a:b6:f3:56:24:
                    28:36:3e:a7:3b:fa:1c:74:f6:30:e7:fd:2c:54:ba:
                    b2:1d:a0:99:ce:90:c6:54:3d:c3:30:28:a1:e5:e7:
                    0c:3c:f0:e7:01:01:3a:c9:94:4f:c4:06:cd:7b:9b:
                    c2:bb:67:51:f0:97:a5:ba:30:3d:2b:71:ff:21:56:
                    7f:e7:0d:07:79:f9:e3:cf:f6:01:21:b5:fe:84:03:
                    10:fc:50:a5:e4:0f:bc:95:d5:5d:77:a1:20:65:19:
                    a3:5a:74:37:c4:dd:05:22:07:c3:11:19:e0:4c:8a:
                    2d:0e:dc:72:e9:52:c7:10:1e:95:d5:c8:0d:95:d5:
                    ed:2c:19:1c:a0:0f:95:95:38:19:0c:bc:1b:fe:5f:
                    28:89:be:b0:4f:2d:95:e8:bd:e5:00:09:e7:54:5e:
                    c0:9f:26:c4:72:50:63:06:25:c8:22:33:91:ee:d1:
                    a4:75:ec:ad:2d:22:a0:2c:a5:98:0b:08:74:83:13:
                    3e:6d
                Exponent: 65537 (0x10001)
        X509v3 extensions:
            X509v3 Basic Constraints: 
                CA:FALSE
            Netscape Comment: 
                OpenSSL Generated Certificate
            X509v3 Subject Key Identifier: 
                7F:BA:DF:F4:F2:1B:8B:FD:CA:60:D1:1F:6C:8A:E6:01:FE:14:A6:A6
            X509v3 Authority Key Identifier: 
                keyid:77:A3:31:7A:29:2E:2A:3D:AA:26:93:C7:E1:8E:09:2E:30:88:0F:96

    Signature Algorithm: sha256WithRSAEncryption
         b4:bd:70:75:6b:69:73:8e:76:d2:2a:73:44:b1:34:1b:3f:42:
         19:a6:c6:5b:f7:da:1e:fd:4e:9e:80:8a:4a:92:b0:f3:ed:a3:
         9c:98:c3:f9:6f:fa:3a:f4:86:63:2d:96:2d:dd:6d:f0:1c:74:
         3c:5e:b0:93:54:a0:da:be:fa:e5:d2:ba:5c:4c:d6:40:1b:63:
         fe:32:1b:f8:ad:6e:b3:b2:85:06:76:49:4c:45:ce:7b:de:c7:
         d3:73:4b:cb:fc:74:61:e0:ee:bf:98:74:8c:fb:9a:bb:a9:45:
         c8:77:d8:d3:9e:dd:e5:cc:55:82:eb:de:52:d7:4e:68:8b:32:
         4b:e9:30:02:bd:33:d8:b8:0b:36:60:fd:fa:97:37:e8:5e:60:
         bf:ad:db:41:84:04:7f:6d:c0:93:8f:81:13:77:d1:81:b0:af:
         6a:53:e1:e7:87:2a:22:a1:05:c8:75:e9:1b:d5:0f:cd:96:b6:
         f6:0a:d2:83:6a:5d:20:90:c8:84:50:6e:2a:be:17:8b:39:20:
         d0:a3:4b:77:6c:66:90:c1:30:13:8d:95:0c:5c:35:3b:4e:df:
         a4:1c:80:09:4b:8e:d9:d8:8a:2a:67:6a:c8:d3:34:d4:44:05:
         ab:d8:de:ce:6e:03:c5:35:15:91:f8:d1:8c:ad:cb:5f:9a:89:
         36:76:ed:ba:a5:db:1e:49:1b:73:1c:bf:98:80:ea:91:90:64:
         b0:e7:ff:47:ee:31:eb:c3:f3:a6:80:00:ee:27:4c:f1:26:be:
         c9:29:2d:9a:91:d7:bd:3d:8b:f9:49:6a:44:3a:3c:49:57:eb:
         ff:d5:3c:c2:14:e3:81:ee:3c:74:39:35:46:7f:91:e4:ce:7c:
         e3:4e:e4:82:59:b0:a6:22:09:f5:01:eb:97:56:d7:c1:a3:a6:
         60:bf:f3:eb:68:e3:c2:94:10:e9:50:53:c9:d4:bd:07:89:bd:
         e1:dd:e4:b2:e4:aa:ed:b2:bf:a7:85:55:ec:7f:ef:aa:01:15:
         2d:17:c9:f3:02:fd:9d:f7:6b:1c:2b:a4:dc:c5:bd:ac:fc:57:
         04:d5:d1:05:ec:14:0e:a8:ba:c8:cb:9d:05:e1:ca:df:93:91:
         c8:13:d8:c2:5e:69:3d:0f:ab:a1:ba:d1:52:59:66:8d:71:f1:
         a8:1d:18:ed:1e:2f:10:ee:96:ad:14:14:e0:a4:d7:45:4d:83:
         0d:61:97:94:09:a7:73:af:0a:43:01:d8:96:ab:f5:9c:0a:c5:
         a7:bb:4f:82:79:8a:0e:cd:4e:8d:92:5a:f0:b8:33:7a:d9:96:
         db:f9:93:05:cf:3f:8f:6f:60:34:0b:f8:bd:df:3b:d1:54:73:
         7f:34:c4:a4:e8:e4:86:31
-----BEGIN CERTIFICATE-----
MIIFETCCAvmgAwIBAgIBFDANBgkqhkiG9w0BAQsFADCBkzELMAkGA1UEBhMCVVMx
CzAJBgNVBAgMAkNBMREwDwYDVQQHDAhTdGFuZm9yZDENMAsGA1UECgwEQk1JUjEO
MAwGA1UECwwFQ0VEQVIxHDAaBgNVBAMME21ldGFkYXRhY2VudGVyLm9yZ3gxJzAl
BgkqhkiG9w0BCQEWGG1ldGFkYXRhY2VudGVyQGdtYWlsLmNvbTAeFw0yMDEwMDYw
NjUwNTRaFw0yMzAxMDgwNjUwNTRaMIGGMQswCQYDVQQGEwJVUzELMAkGA1UECAwC
Q0ExDTALBgNVBAoMBEJNSVIxDjAMBgNVBAsMBUNFREFSMSIwIAYDVQQDDBljZWRh
ci5tZXRhZGF0YWNlbnRlci5vcmd4MScwJQYJKoZIhvcNAQkBFhhtZXRhZGF0YWNl
bnRlckBnbWFpbC5jb20wggEiMA0GCSqGSIb3DQEBAQUAA4IBDwAwggEKAoIBAQDd
oNcLeC9Q0RrmfCHV/duO+TMVOBeXmzAeNo5nR78DFs27cOAM6ODiTpKJxw2T+uRv
I+tgusHy7S8fSm9dUevJnaE1nJ9atvNWJCg2Pqc7+hx09jDn/SxUurIdoJnOkMZU
PcMwKKHl5ww88OcBATrJlE/EBs17m8K7Z1Hwl6W6MD0rcf8hVn/nDQd5+ePP9gEh
tf6EAxD8UKXkD7yV1V13oSBlGaNadDfE3QUiB8MRGeBMii0O3HLpUscQHpXVyA2V
1e0sGRygD5WVOBkMvBv+XyiJvrBPLZXoveUACedUXsCfJsRyUGMGJcgiM5Hu0aR1
7K0tIqAspZgLCHSDEz5tAgMBAAGjezB5MAkGA1UdEwQCMAAwLAYJYIZIAYb4QgEN
BB8WHU9wZW5TU0wgR2VuZXJhdGVkIENlcnRpZmljYXRlMB0GA1UdDgQWBBR/ut/0
8huL/cpg0R9siuYB/hSmpjAfBgNVHSMEGDAWgBR3ozF6KS4qPaomk8fhjgkuMIgP
ljANBgkqhkiG9w0BAQsFAAOCAgEAtL1wdWtpc4520ipzRLE0Gz9CGabGW/faHv1O
noCKSpKw8+2jnJjD+W/6OvSGYy2WLd1t8Bx0PF6wk1Sg2r765dK6XEzWQBtj/jIb
+K1us7KFBnZJTEXOe97H03NLy/x0YeDuv5h0jPuau6lFyHfY057d5cxVguveUtdO
aIsyS+kwAr0z2LgLNmD9+pc36F5gv63bQYQEf23Ak4+BE3fRgbCvalPh54cqIqEF
yHXpG9UPzZa29grSg2pdIJDIhFBuKr4Xizkg0KNLd2xmkMEwE42VDFw1O07fpByA
CUuO2diKKmdqyNM01EQFq9jezm4DxTUVkfjRjK3LX5qJNnbtuqXbHkkbcxy/mIDq
kZBksOf/R+4x68PzpoAA7idM8Sa+ySktmpHXvT2L+UlqRDo8SVfr/9U8whTjge48
dDk1Rn+R5M58407kglmwpiIJ9QHrl1bXwaOmYL/z62jjwpQQ6VBTydS9B4m94d3k
suSq7bK/p4VV7H/vqgEVLRfJ8wL9nfdrHCuk3MW9rPxXBNXRBewUDqi6yMudBeHK
35ORyBPYwl5pPQ+robrRUllmjXHxqB0Y7R4vEO6WrRQU4KTXRU2DDWGXlAmnc68K
QwHYlqv1nArFp7tPgnmKDs1OjZJa8LgzetmW2/mTBc8/j29gNAv4vd870VRzfzTE
pOjkhjE=
-----END CERTIFICATE-----
