Certificate:
    Data:
        Version: 3 (0x2)
        Serial Number: 1 (0x1)
        Signature Algorithm: sha256WithRSAEncryption
        Issuer: C=US, ST=CA, L=Stanford, O=BMIR, OU=CEDAR, CN=metadatacenter.orgx/emailAddress=metadatacenter@gmail.com
        Validity
            Not Before: Oct  6 00:04:30 2020 GMT
            Not After : Jan  8 00:04:30 2023 GMT
        Subject: C=US, ST=CA, O=BMIR, OU=CEDAR, CN=cedar.metedatacenter.orgx/emailAddress=metadatacenter@gmail.com
        Subject Public Key Info:
            Public Key Algorithm: rsaEncryption
                RSA Public-Key: (2048 bit)
                Modulus:
                    00:e1:ed:79:05:be:13:16:7a:19:09:a3:72:18:86:
                    2c:5c:9f:0a:3c:2a:01:78:6a:68:4e:5a:06:5d:03:
                    d9:af:5c:58:af:0b:d4:87:0e:dd:f5:79:85:80:bc:
                    71:1a:7e:75:44:f8:38:12:61:91:47:6f:30:1b:12:
                    0a:5c:1f:8f:6d:5b:96:e5:34:4f:73:f1:a2:70:27:
                    56:f4:9e:28:37:3d:ee:f0:37:06:72:1e:8a:c9:52:
                    95:28:85:36:f8:7a:b3:18:2c:c8:c5:9f:2d:44:22:
                    4c:fd:82:72:c6:c7:46:3a:0f:6e:82:e5:5d:5e:bd:
                    fb:1f:7f:53:72:8b:db:86:4a:70:e5:81:77:24:60:
                    99:b3:c5:c9:13:59:99:90:fa:26:f2:6c:8b:d9:01:
                    14:3a:1b:f5:3d:34:6f:77:1c:d1:d0:5d:99:e2:7a:
                    89:ff:7d:32:95:aa:ea:c6:2d:56:bb:91:39:e1:50:
                    c9:22:99:df:23:0e:8b:47:8d:72:8b:32:21:cd:f9:
                    e3:85:b9:41:b1:f5:48:bd:5c:3f:18:01:ab:74:9c:
                    26:68:5a:73:86:68:cb:d5:da:ac:49:8d:5e:12:3c:
                    9d:bc:bb:55:3d:91:fd:a9:fe:11:32:b5:ce:1f:2e:
                    0b:c1:9e:01:df:db:b7:8e:fe:83:6d:b3:54:f4:39:
                    f5:55
                Exponent: 65537 (0x10001)
        X509v3 extensions:
            X509v3 Basic Constraints: 
                CA:FALSE
            Netscape Comment: 
                OpenSSL Generated Certificate
            X509v3 Subject Key Identifier: 
                EE:ED:EB:21:71:A9:5C:5A:0C:4E:04:D4:83:B8:63:CF:31:1F:3B:BF
            X509v3 Authority Key Identifier: 
                keyid:77:A3:31:7A:29:2E:2A:3D:AA:26:93:C7:E1:8E:09:2E:30:88:0F:96

    Signature Algorithm: sha256WithRSAEncryption
         3a:0d:73:e8:03:c7:58:cb:52:8f:fe:7e:87:8a:b9:db:81:06:
         c6:ea:d6:85:e4:99:3a:77:d4:f5:33:eb:7c:a3:a1:d7:fb:8a:
         0b:a7:d5:3f:99:4d:e4:04:4a:72:ce:33:59:43:d0:68:46:cf:
         b7:aa:d9:9f:4f:23:ac:7b:cd:00:b2:f8:6a:aa:95:e4:f0:7a:
         a3:bc:fa:a0:a3:a7:4f:7b:59:85:78:a7:7d:ff:2f:29:b9:83:
         91:e5:9d:49:0f:9f:5f:a6:e0:44:ce:08:ae:27:5e:1b:e3:01:
         f0:5a:fb:89:1c:1b:b0:db:58:20:0f:98:2a:46:1c:08:70:02:
         e9:57:2c:89:76:0a:14:71:7a:e7:8e:af:7b:4f:fd:0c:ca:3f:
         f4:27:2d:2e:29:1c:cd:01:6f:01:1f:5a:19:ac:9b:ea:4a:38:
         f5:0a:42:1d:7c:e5:17:51:91:f7:84:df:33:2a:b7:3a:c1:27:
         dc:8e:69:9b:a4:83:8f:cb:22:3d:6e:df:59:ae:ee:31:f4:fa:
         4a:4b:93:41:83:f0:91:ba:d9:f5:07:50:9d:4c:ba:2b:c1:11:
         b9:b1:22:c7:b4:c2:65:73:fe:fa:93:04:03:d4:20:d6:c8:39:
         f2:f6:fe:66:e4:03:72:8d:35:55:5e:61:51:c1:22:b4:69:e1:
         13:0e:f1:c8:d9:45:a9:8c:b7:d6:d9:cd:9c:04:00:0f:71:d3:
         a0:44:a8:5a:22:f2:84:69:f2:07:f5:45:09:55:d9:df:ea:d8:
         64:90:d5:00:ab:70:1a:6d:98:1f:21:58:0c:89:18:22:8d:7a:
         9c:37:3b:f1:17:78:ba:00:d5:1c:93:98:5d:3e:cf:df:b9:db:
         9e:6b:92:59:27:2f:d4:11:04:d8:fa:f5:27:d4:4e:99:f8:21:
         4a:58:17:81:3d:39:30:ad:fc:e0:ff:e4:15:fe:49:5b:8c:49:
         2d:b5:2d:d7:2b:17:07:8c:d6:a6:63:97:c7:d9:2e:e4:9f:41:
         5f:99:c4:ef:c5:dc:33:32:75:de:07:c6:98:b8:16:cb:ca:1d:
         e7:8b:41:b1:5e:5d:14:c2:eb:a1:bc:ba:fa:77:f8:fc:4e:b6:
         6a:83:ad:fb:dc:88:ce:56:f0:5c:34:09:5b:2a:f0:af:e1:79:
         fc:fb:fa:f1:f5:4c:e0:0d:d4:f6:7c:16:40:b9:f8:a8:3d:8a:
         8a:cd:c6:7f:53:b1:cf:7d:0e:cc:1a:0c:dc:24:01:50:bc:65:
         a8:9b:34:dd:54:e2:12:f7:63:b0:a7:30:37:1f:02:8a:e3:ee:
         57:aa:d1:3e:e5:45:6f:5b:1d:78:c2:14:f2:4c:07:dd:42:54:
         d6:bd:a7:3c:95:24:0c:09
-----BEGIN CERTIFICATE-----
MIIFETCCAvmgAwIBAgIBATANBgkqhkiG9w0BAQsFADCBkzELMAkGA1UEBhMCVVMx
CzAJBgNVBAgMAkNBMREwDwYDVQQHDAhTdGFuZm9yZDENMAsGA1UECgwEQk1JUjEO
MAwGA1UECwwFQ0VEQVIxHDAaBgNVBAMME21ldGFkYXRhY2VudGVyLm9yZ3gxJzAl
BgkqhkiG9w0BCQEWGG1ldGFkYXRhY2VudGVyQGdtYWlsLmNvbTAeFw0yMDEwMDYw
MDA0MzBaFw0yMzAxMDgwMDA0MzBaMIGGMQswCQYDVQQGEwJVUzELMAkGA1UECAwC
Q0ExDTALBgNVBAoMBEJNSVIxDjAMBgNVBAsMBUNFREFSMSIwIAYDVQQDDBljZWRh
ci5tZXRlZGF0YWNlbnRlci5vcmd4MScwJQYJKoZIhvcNAQkBFhhtZXRhZGF0YWNl
bnRlckBnbWFpbC5jb20wggEiMA0GCSqGSIb3DQEBAQUAA4IBDwAwggEKAoIBAQDh
7XkFvhMWehkJo3IYhixcnwo8KgF4amhOWgZdA9mvXFivC9SHDt31eYWAvHEafnVE
+DgSYZFHbzAbEgpcH49tW5blNE9z8aJwJ1b0nig3Pe7wNwZyHorJUpUohTb4erMY
LMjFny1EIkz9gnLGx0Y6D26C5V1evfsff1Nyi9uGSnDlgXckYJmzxckTWZmQ+iby
bIvZARQ6G/U9NG93HNHQXZnieon/fTKVqurGLVa7kTnhUMkimd8jDotHjXKLMiHN
+eOFuUGx9Ui9XD8YAat0nCZoWnOGaMvV2qxJjV4SPJ28u1U9kf2p/hEytc4fLgvB
ngHf27eO/oNts1T0OfVVAgMBAAGjezB5MAkGA1UdEwQCMAAwLAYJYIZIAYb4QgEN
BB8WHU9wZW5TU0wgR2VuZXJhdGVkIENlcnRpZmljYXRlMB0GA1UdDgQWBBTu7esh
calcWgxOBNSDuGPPMR87vzAfBgNVHSMEGDAWgBR3ozF6KS4qPaomk8fhjgkuMIgP
ljANBgkqhkiG9w0BAQsFAAOCAgEAOg1z6APHWMtSj/5+h4q524EGxurWheSZOnfU
9TPrfKOh1/uKC6fVP5lN5ARKcs4zWUPQaEbPt6rZn08jrHvNALL4aqqV5PB6o7z6
oKOnT3tZhXinff8vKbmDkeWdSQ+fX6bgRM4IrideG+MB8Fr7iRwbsNtYIA+YKkYc
CHAC6VcsiXYKFHF6546ve0/9DMo/9CctLikczQFvAR9aGayb6ko49QpCHXzlF1GR
94TfMyq3OsEn3I5pm6SDj8siPW7fWa7uMfT6SkuTQYPwkbrZ9QdQnUy6K8ERubEi
x7TCZXP++pMEA9Qg1sg58vb+ZuQDco01VV5hUcEitGnhEw7xyNlFqYy31tnNnAQA
D3HToESoWiLyhGnyB/VFCVXZ3+rYZJDVAKtwGm2YHyFYDIkYIo16nDc78Rd4ugDV
HJOYXT7P37nbnmuSWScv1BEE2Pr1J9ROmfghSlgXgT05MK384P/kFf5JW4xJLbUt
1ysXB4zWpmOXx9ku5J9BX5nE78XcMzJ13gfGmLgWy8od54tBsV5dFMLroby6+nf4
/E62aoOt+9yIzlbwXDQJWyrwr+F5/Pv68fVM4A3U9nwWQLn4qD2Kis3Gf1Oxz30O
zBoM3CQBULxlqJs03VTiEvdjsKcwNx8CiuPuV6rRPuVFb1sdeMIU8kwH3UJU1r2n
PJUkDAk=
-----END CERTIFICATE-----
