Certificate:
    Data:
        Version: 3 (0x2)
        Serial Number: 3 (0x3)
    Signature Algorithm: sha256WithRSAEncryption
        Issuer: C=US, ST=California, L=Stanford, O=BMIR, OU=CEDAR, CN=metadatacenter.orgx/emailAddress=metadatacenter@gmail.com
        Validity
            Not Before: Jun 11 23:26:08 2018 GMT
            Not After : Jun  8 23:26:08 2028 GMT
        Subject: C=US, ST=California, O=BMIR, OU=CEDAR, CN=cedar.metedatacenter.orgx/emailAddress=metadatacenter@gmail.com
        Subject Public Key Info:
            Public Key Algorithm: rsaEncryption
                Public-Key: (2048 bit)
                Modulus:
                    00:ae:43:bf:40:11:c6:92:18:90:b3:ec:88:21:9c:
                    9a:72:e6:d2:4b:b6:22:dc:54:42:84:fe:5d:44:9a:
                    d1:eb:f6:8b:35:4e:1b:1d:17:47:bd:e1:91:0e:64:
                    22:ac:48:c9:64:21:02:2e:15:96:d8:75:ae:e2:bb:
                    b5:33:3f:0c:8c:55:88:82:4b:62:6b:43:cc:25:5d:
                    d8:23:61:af:bc:95:83:4b:0b:8a:7d:bb:02:c9:46:
                    8f:26:9c:1e:bc:16:18:1f:53:1b:dc:d6:13:ba:0a:
                    a2:1c:c3:4e:30:23:1f:8e:8f:24:73:76:39:96:c0:
                    63:7a:19:1a:63:d7:16:74:f6:02:69:76:b2:8b:b2:
                    43:11:b4:e2:d8:08:5f:04:19:9f:3d:3a:5d:fd:dd:
                    8d:d3:2d:8d:9b:58:ec:55:23:4c:30:46:52:12:f9:
                    a0:94:84:8a:4f:08:79:78:6d:eb:80:d0:22:c1:22:
                    0c:8f:f2:65:c1:28:80:73:b2:cb:cf:ff:42:6f:72:
                    3b:57:8b:45:48:f8:48:e8:59:2b:ab:c0:e1:cf:a0:
                    75:ce:d7:27:05:df:d4:81:ce:e6:34:c9:0b:f6:8d:
                    e2:88:a4:2b:29:cc:52:f3:1a:a8:7f:75:27:98:2a:
                    69:30:65:2b:81:8a:2c:2a:9f:91:5a:c6:5a:db:f7:
                    89:71
                Exponent: 65537 (0x10001)
        X509v3 extensions:
            X509v3 Basic Constraints: 
                CA:FALSE
            Netscape Comment: 
                OpenSSL Generated Certificate
            X509v3 Subject Key Identifier: 
                B8:F3:16:A3:E2:91:6C:ED:17:F2:7F:AD:D9:55:BB:DC:29:73:35:36
            X509v3 Authority Key Identifier: 
                keyid:FB:A7:23:D3:57:E6:17:E1:D9:AF:FE:71:2C:97:E1:EA:94:5D:FC:D6

            X509v3 Subject Alternative Name: 
                DNS:*.metadatacenter.orgx
    Signature Algorithm: sha256WithRSAEncryption
         35:32:08:21:e8:c7:1a:16:92:bb:dc:6b:25:63:bb:d7:d1:28:
         e0:d9:7f:84:39:31:57:a6:55:64:ac:53:2c:52:c9:35:e2:72:
         1b:97:c2:c9:94:a9:86:3b:ce:0d:89:74:c1:86:7f:81:94:22:
         9f:c4:8d:24:25:cd:ad:79:1e:8a:34:91:4f:65:18:3d:db:74:
         80:0b:c8:10:3b:ea:0e:f5:d7:64:45:b6:53:9a:31:70:53:7d:
         bc:90:82:67:57:64:4b:8a:88:0e:a7:2d:ce:ce:3f:cd:17:8b:
         d5:29:8b:de:e1:cb:01:0d:4e:ff:b2:6c:33:a7:ab:17:2e:c8:
         73:8e:c5:b0:c2:5c:0c:be:cb:11:d0:33:ff:13:40:63:47:27:
         9d:65:6d:70:fb:90:ba:c1:b6:54:a2:6e:af:78:a3:d4:d3:f1:
         88:ef:3c:c2:c4:b6:88:47:d4:1f:39:4b:25:c5:04:24:49:bb:
         49:6b:1a:dc:f7:8b:44:89:50:a7:06:11:73:80:b0:1c:08:07:
         17:20:43:32:ee:2e:d0:d6:34:6f:5f:55:62:c1:f0:ad:0f:f8:
         86:2e:ae:d3:c0:d4:73:b7:cd:32:71:84:53:e8:86:a9:5c:a0:
         a5:73:04:b7:79:5c:eb:d3:96:36:ef:64:c3:f0:ae:32:c0:c3:
         b1:24:a2:13:04:ce:ab:a5:fe:49:4d:69:29:eb:e8:f6:44:20:
         04:50:bd:e3:ff:6c:5b:2d:a3:58:46:9a:62:cb:2c:57:63:63:
         30:ac:26:38:a9:45:42:1f:06:9f:e5:ce:c8:08:3f:31:99:16:
         b7:1c:84:21:3b:96:7a:6d:8f:0c:6a:14:72:21:0f:b0:7d:3e:
         5a:a1:b4:c4:e2:7d:16:e8:63:8c:f5:93:13:c8:7c:3c:1d:ef:
         d7:20:1c:84:e1:84:a6:5d:0e:db:7e:63:82:a2:e3:b6:4d:30:
         77:bf:30:fc:23:00:8d:ac:bb:17:b9:74:f9:1d:02:20:56:3e:
         21:90:fd:92:ee:0b:f6:30:71:c5:1e:10:0e:ff:c7:d4:86:0c:
         a2:5c:cb:bb:17:00:90:d5:25:b1:df:27:83:c0:dc:eb:91:12:
         31:54:52:0e:53:73:6f:42:f0:c6:47:84:12:8c:97:5d:33:b4:
         62:68:e6:97:8b:a6:68:e7:9b:79:73:31:d0:d1:a4:34:1d:4e:
         cb:b0:69:f6:d9:d2:e9:64:86:ea:82:73:58:fd:7d:29:fb:6e:
         54:a0:2c:79:65:0f:59:27:3c:aa:7c:0c:7d:0b:4a:7a:be:28:
         2f:61:3e:ff:df:2f:ee:17:0a:a8:70:42:f8:7d:b8:f7:79:e0:
         92:85:ee:86:bb:0c:64:f0
-----BEGIN CERTIFICATE-----
MIIFRTCCAy2gAwIBAgIBAzANBgkqhkiG9w0BAQsFADCBmzELMAkGA1UEBhMCVVMx
EzARBgNVBAgMCkNhbGlmb3JuaWExETAPBgNVBAcMCFN0YW5mb3JkMQ0wCwYDVQQK
DARCTUlSMQ4wDAYDVQQLDAVDRURBUjEcMBoGA1UEAwwTbWV0YWRhdGFjZW50ZXIu
b3JneDEnMCUGCSqGSIb3DQEJARYYbWV0YWRhdGFjZW50ZXJAZ21haWwuY29tMB4X
DTE4MDYxMTIzMjYwOFoXDTI4MDYwODIzMjYwOFowgY4xCzAJBgNVBAYTAlVTMRMw
EQYDVQQIDApDYWxpZm9ybmlhMQ0wCwYDVQQKDARCTUlSMQ4wDAYDVQQLDAVDRURB
UjEiMCAGA1UEAwwZY2VkYXIubWV0ZWRhdGFjZW50ZXIub3JneDEnMCUGCSqGSIb3
DQEJARYYbWV0YWRhdGFjZW50ZXJAZ21haWwuY29tMIIBIjANBgkqhkiG9w0BAQEF
AAOCAQ8AMIIBCgKCAQEArkO/QBHGkhiQs+yIIZyacubSS7Yi3FRChP5dRJrR6/aL
NU4bHRdHveGRDmQirEjJZCECLhWW2HWu4ru1Mz8MjFWIgktia0PMJV3YI2GvvJWD
SwuKfbsCyUaPJpwevBYYH1Mb3NYTugqiHMNOMCMfjo8kc3Y5lsBjehkaY9cWdPYC
aXayi7JDEbTi2AhfBBmfPTpd/d2N0y2Nm1jsVSNMMEZSEvmglISKTwh5eG3rgNAi
wSIMj/JlwSiAc7LLz/9Cb3I7V4tFSPhI6Fkrq8Dhz6B1ztcnBd/Ugc7mNMkL9o3i
iKQrKcxS8xqof3UnmCppMGUrgYosKp+RWsZa2/eJcQIDAQABo4GeMIGbMAkGA1Ud
EwQCMAAwLAYJYIZIAYb4QgENBB8WHU9wZW5TU0wgR2VuZXJhdGVkIENlcnRpZmlj
YXRlMB0GA1UdDgQWBBS48xaj4pFs7Rfyf63ZVbvcKXM1NjAfBgNVHSMEGDAWgBT7
pyPTV+YX4dmv/nEsl+HqlF381jAgBgNVHREEGTAXghUqLm1ldGFkYXRhY2VudGVy
Lm9yZ3gwDQYJKoZIhvcNAQELBQADggIBADUyCCHoxxoWkrvcayVju9fRKODZf4Q5
MVemVWSsUyxSyTXichuXwsmUqYY7zg2JdMGGf4GUIp/EjSQlza15Hoo0kU9lGD3b
dIALyBA76g7112RFtlOaMXBTfbyQgmdXZEuKiA6nLc7OP80Xi9Upi97hywENTv+y
bDOnqxcuyHOOxbDCXAy+yxHQM/8TQGNHJ51lbXD7kLrBtlSibq94o9TT8YjvPMLE
tohH1B85SyXFBCRJu0lrGtz3i0SJUKcGEXOAsBwIBxcgQzLuLtDWNG9fVWLB8K0P
+IYurtPA1HO3zTJxhFPohqlcoKVzBLd5XOvTljbvZMPwrjLAw7EkohMEzqul/klN
aSnr6PZEIARQveP/bFsto1hGmmLLLFdjYzCsJjipRUIfBp/lzsgIPzGZFrcchCE7
lnptjwxqFHIhD7B9PlqhtMTifRboY4z1kxPIfDwd79cgHIThhKZdDtt+Y4Ki47ZN
MHe/MPwjAI2suxe5dPkdAiBWPiGQ/ZLuC/YwccUeEA7/x9SGDKJcy7sXAJDVJbHf
J4PA3OuREjFUUg5Tc29C8MZHhBKMl10ztGJo5peLpmjnm3lzMdDRpDQdTsuwafbZ
0ulkhuqCc1j9fSn7blSgLHllD1knPKp8DH0LSnq+KC9hPv/fL+4XCqhwQvh9uPd5
4JKF7oa7DGTw
-----END CERTIFICATE-----
