Certificate:
    Data:
        Version: 3 (0x2)
        Serial Number: 18 (0x12)
    Signature Algorithm: sha256WithRSAEncryption
        Issuer: C=US, ST=California, L=Stanford, O=BMIR, OU=CEDAR, CN=metadatacenter.orgx/emailAddress=metadatacenter@gmail.com
        Validity
            Not Before: Mar 13 22:17:41 2019 GMT
            Not After : Mar 10 22:17:41 2029 GMT
        Subject: C=US, ST=California, O=BMIR, OU=CEDAR, CN=artifact.metedatacenter.orgx/emailAddress=metadatacenter@gmail.com
        Subject Public Key Info:
            Public Key Algorithm: rsaEncryption
                Public-Key: (2048 bit)
                Modulus:
                    00:da:f5:df:93:17:78:fe:34:af:af:81:fd:c6:a1:
                    d5:85:72:2c:18:1d:78:8e:38:21:5d:40:cb:d2:e2:
                    36:c6:8c:e6:d5:a0:ca:94:aa:40:bf:92:51:41:f0:
                    55:d8:24:ba:26:93:ea:85:49:f3:fe:26:7e:8c:aa:
                    03:a2:69:92:bb:ae:1a:4b:ce:05:47:c1:77:07:22:
                    dc:b6:b3:75:96:54:76:6a:07:ae:5e:4d:10:e0:64:
                    f9:b2:46:eb:04:ab:df:b0:3f:ae:29:e0:69:e8:dd:
                    56:c8:56:1e:de:ad:ab:2a:42:c1:24:8c:55:8c:6b:
                    37:33:d5:13:fd:23:23:f4:ea:85:05:0c:d7:9a:3b:
                    ca:eb:bf:37:e0:40:79:d4:04:d1:c3:dc:fa:8e:60:
                    85:24:fe:95:77:fe:eb:6e:78:6d:ee:62:f7:9b:d0:
                    ae:de:89:35:e5:6f:c1:4e:b9:0f:0a:fe:06:fc:b9:
                    03:c4:00:65:33:f1:e3:7d:6c:8e:92:17:85:30:4f:
                    01:65:e1:2c:4d:68:29:ef:b5:49:98:e5:6a:72:37:
                    81:48:f4:7b:75:56:00:d7:8d:29:ed:48:da:ba:a3:
                    9a:91:83:f2:1c:05:bc:13:d5:52:fb:51:5c:12:98:
                    e1:31:c6:5e:ef:9f:c8:94:74:e6:91:a7:e7:26:ca:
                    fa:45
                Exponent: 65537 (0x10001)
        X509v3 extensions:
            X509v3 Basic Constraints: 
                CA:FALSE
            Netscape Comment: 
                OpenSSL Generated Certificate
            X509v3 Subject Key Identifier: 
                F4:4C:F2:B3:12:55:9A:08:56:7C:20:64:AA:41:F9:A5:15:AE:E2:C2
            X509v3 Authority Key Identifier: 
                keyid:FB:A7:23:D3:57:E6:17:E1:D9:AF:FE:71:2C:97:E1:EA:94:5D:FC:D6

            X509v3 Subject Alternative Name: 
                DNS:*.metadatacenter.orgx
    Signature Algorithm: sha256WithRSAEncryption
         07:7d:3d:d9:db:24:b9:5e:0d:6f:37:d6:c3:b2:5a:94:04:3b:
         96:dc:a1:45:cf:f1:a4:4d:9c:a4:b8:a0:7f:f6:d2:5d:fd:59:
         2d:8b:79:71:94:43:01:c8:f0:88:62:3a:26:4f:7c:04:e4:16:
         a8:71:f6:80:4d:2d:8e:7d:17:fc:82:d4:96:94:47:87:32:5f:
         27:34:30:93:b2:db:61:ee:23:ba:c5:94:79:87:e0:8f:9b:7f:
         1b:4b:09:ca:8d:5e:fc:2e:33:f3:07:ca:c5:ba:8e:ab:9b:41:
         5e:06:e5:bd:cb:18:81:a7:e4:cb:f6:85:ce:63:2b:b5:b6:c4:
         b3:86:88:41:0d:08:03:c5:3f:7d:d6:61:63:3e:29:67:7a:c7:
         66:87:49:99:b4:20:69:26:07:90:cc:98:6f:df:18:4a:96:52:
         e5:9b:55:64:ef:57:4e:41:2d:80:21:8a:42:8b:58:f3:2a:4a:
         85:97:90:b0:ea:3e:a3:ee:ce:b1:cd:f2:b7:0b:bd:83:a8:60:
         6e:cb:bb:50:92:9e:09:d6:44:56:60:52:64:d1:34:87:28:c3:
         7c:7c:cb:df:c0:77:6e:e5:e4:eb:c5:6b:ab:94:d3:59:ee:64:
         15:c7:a0:f3:2b:10:8a:8e:1c:4d:67:b3:08:0f:4b:6a:30:92:
         b4:9b:7b:7b:b3:85:a6:05:f9:1e:a2:b8:af:2b:a3:0c:8f:63:
         44:aa:73:8b:a2:c2:ce:de:7a:13:87:00:99:e2:19:8e:c1:47:
         e4:79:2f:40:2a:1a:66:63:69:9a:0b:81:1f:8f:5b:ce:6d:80:
         16:59:6a:43:cc:d5:a8:74:55:54:a5:d5:40:00:70:56:2b:a0:
         e9:06:19:40:64:51:f6:4d:aa:8f:49:b9:2e:40:b6:c7:01:af:
         55:97:a8:61:a8:ff:16:c9:f5:e5:a0:bd:94:3e:92:d0:74:0f:
         e9:69:a1:e6:8e:16:1c:4c:91:f9:00:5a:cc:61:58:3a:1c:44:
         3f:b5:11:6b:eb:10:44:86:0d:1d:29:94:fd:76:73:fe:00:dd:
         5f:cb:86:90:dd:5f:57:b6:21:a5:78:6c:81:6b:62:59:dd:15:
         61:91:5e:9d:4c:b8:8d:c1:97:8d:da:34:dd:ee:f5:4d:25:fa:
         0f:3d:83:c3:c1:c9:3c:98:2d:f8:c0:e8:0d:5e:df:22:45:1e:
         b5:5a:b0:37:21:3f:5e:f9:53:54:a4:cf:65:5c:59:ab:2d:28:
         6a:31:18:a2:b4:03:20:34:87:fe:65:ef:aa:4d:90:80:ab:11:
         61:9a:73:d2:a5:f7:51:aa:8c:12:d5:f2:5f:98:68:6a:f0:e4:
         d0:90:8c:c5:31:24:a7:91
-----BEGIN CERTIFICATE-----
MIIFSDCCAzCgAwIBAgIBEjANBgkqhkiG9w0BAQsFADCBmzELMAkGA1UEBhMCVVMx
EzARBgNVBAgMCkNhbGlmb3JuaWExETAPBgNVBAcMCFN0YW5mb3JkMQ0wCwYDVQQK
DARCTUlSMQ4wDAYDVQQLDAVDRURBUjEcMBoGA1UEAwwTbWV0YWRhdGFjZW50ZXIu
b3JneDEnMCUGCSqGSIb3DQEJARYYbWV0YWRhdGFjZW50ZXJAZ21haWwuY29tMB4X
DTE5MDMxMzIyMTc0MVoXDTI5MDMxMDIyMTc0MVowgZExCzAJBgNVBAYTAlVTMRMw
EQYDVQQIDApDYWxpZm9ybmlhMQ0wCwYDVQQKDARCTUlSMQ4wDAYDVQQLDAVDRURB
UjElMCMGA1UEAwwcYXJ0aWZhY3QubWV0ZWRhdGFjZW50ZXIub3JneDEnMCUGCSqG
SIb3DQEJARYYbWV0YWRhdGFjZW50ZXJAZ21haWwuY29tMIIBIjANBgkqhkiG9w0B
AQEFAAOCAQ8AMIIBCgKCAQEA2vXfkxd4/jSvr4H9xqHVhXIsGB14jjghXUDL0uI2
xozm1aDKlKpAv5JRQfBV2CS6JpPqhUnz/iZ+jKoDommSu64aS84FR8F3ByLctrN1
llR2ageuXk0Q4GT5skbrBKvfsD+uKeBp6N1WyFYe3q2rKkLBJIxVjGs3M9UT/SMj
9OqFBQzXmjvK67834EB51ATRw9z6jmCFJP6Vd/7rbnht7mL3m9Cu3ok15W/BTrkP
Cv4G/LkDxABlM/HjfWyOkheFME8BZeEsTWgp77VJmOVqcjeBSPR7dVYA140p7Uja
uqOakYPyHAW8E9VS+1FcEpjhMcZe75/IlHTmkafnJsr6RQIDAQABo4GeMIGbMAkG
A1UdEwQCMAAwLAYJYIZIAYb4QgENBB8WHU9wZW5TU0wgR2VuZXJhdGVkIENlcnRp
ZmljYXRlMB0GA1UdDgQWBBT0TPKzElWaCFZ8IGSqQfmlFa7iwjAfBgNVHSMEGDAW
gBT7pyPTV+YX4dmv/nEsl+HqlF381jAgBgNVHREEGTAXghUqLm1ldGFkYXRhY2Vu
dGVyLm9yZ3gwDQYJKoZIhvcNAQELBQADggIBAAd9PdnbJLleDW831sOyWpQEO5bc
oUXP8aRNnKS4oH/20l39WS2LeXGUQwHI8IhiOiZPfATkFqhx9oBNLY59F/yC1JaU
R4cyXyc0MJOy22HuI7rFlHmH4I+bfxtLCcqNXvwuM/MHysW6jqubQV4G5b3LGIGn
5Mv2hc5jK7W2xLOGiEENCAPFP33WYWM+KWd6x2aHSZm0IGkmB5DMmG/fGEqWUuWb
VWTvV05BLYAhikKLWPMqSoWXkLDqPqPuzrHN8rcLvYOoYG7Lu1CSngnWRFZgUmTR
NIcow3x8y9/Ad27l5OvFa6uU01nuZBXHoPMrEIqOHE1nswgPS2owkrSbe3uzhaYF
+R6iuK8rowyPY0Sqc4uiws7eehOHAJniGY7BR+R5L0AqGmZjaZoLgR+PW85tgBZZ
akPM1ah0VVSl1UAAcFYroOkGGUBkUfZNqo9JuS5AtscBr1WXqGGo/xbJ9eWgvZQ+
ktB0D+lpoeaOFhxMkfkAWsxhWDocRD+1EWvrEESGDR0plP12c/4A3V/LhpDdX1e2
IaV4bIFrYlndFWGRXp1MuI3Bl43aNN3u9U0l+g89g8PByTyYLfjA6A1e3yJFHrVa
sDchP175U1Skz2VcWastKGoxGKK0AyA0h/5l76pNkICrEWGac9Kl91GqjBLV8l+Y
aGrw5NCQjMUxJKeR
-----END CERTIFICATE-----
