Certificate:
    Data:
        Version: 3 (0x2)
        Serial Number: 2 (0x2)
        Signature Algorithm: sha256WithRSAEncryption
        Issuer: C=US, ST=CA, L=Stanford, O=BMIR, OU=CEDAR, CN=metadatacenter.orgx/emailAddress=metadatacenter@gmail.com
        Validity
            Not Before: Oct  6 00:08:12 2020 GMT
            Not After : Jan  8 00:08:12 2023 GMT
        Subject: C=US, ST=CA, O=BMIR, OU=CEDAR, CN=artifact.metedatacenter.orgx/emailAddress=metadatacenter@gmail.com
        Subject Public Key Info:
            Public Key Algorithm: rsaEncryption
                RSA Public-Key: (2048 bit)
                Modulus:
                    00:ae:ed:50:ca:75:38:41:bf:0a:65:a1:b8:d7:6d:
                    d4:80:42:7d:bc:7a:36:56:c4:d9:94:14:f2:d0:63:
                    d8:eb:1a:b5:5a:62:67:58:69:68:34:0f:ab:ef:7e:
                    84:39:00:17:ae:a4:fb:7d:2e:e4:b1:7d:34:b3:73:
                    b7:8a:25:c1:2a:23:25:b6:b8:2f:15:14:f1:ad:53:
                    27:ca:73:da:cd:84:2f:40:40:04:83:49:a6:58:96:
                    3a:dc:93:8d:b5:bd:21:9b:c7:ed:84:c5:f2:cf:c5:
                    8f:58:fb:05:ff:70:20:70:3f:78:94:9c:8b:8a:87:
                    3d:69:3b:c0:b6:c2:f6:f4:34:1b:1d:aa:5e:7d:44:
                    b1:dd:f5:24:27:a7:0c:67:b2:c6:42:85:d7:dc:10:
                    33:1d:71:55:66:58:b3:40:c3:7d:99:3f:50:06:2a:
                    57:00:41:4b:74:50:0b:d1:a6:21:d6:b2:ac:5d:6c:
                    b5:78:38:e6:93:4e:be:39:af:71:fc:17:e3:7a:c4:
                    9d:8e:28:bd:18:de:17:7c:f8:58:ed:10:54:3e:02:
                    aa:12:d6:aa:e3:ed:85:f7:68:98:3a:24:69:14:1b:
                    e8:a3:58:6f:b8:24:e0:cc:14:71:42:c6:e1:61:9c:
                    5c:1c:1a:28:fd:7c:34:a5:22:5c:ac:af:50:1c:3d:
                    79:4d
                Exponent: 65537 (0x10001)
        X509v3 extensions:
            X509v3 Basic Constraints: 
                CA:FALSE
            Netscape Comment: 
                OpenSSL Generated Certificate
            X509v3 Subject Key Identifier: 
                9B:F4:99:5A:D8:92:16:1D:8A:63:97:05:2A:F0:4F:D1:E6:D2:24:10
            X509v3 Authority Key Identifier: 
                keyid:77:A3:31:7A:29:2E:2A:3D:AA:26:93:C7:E1:8E:09:2E:30:88:0F:96

    Signature Algorithm: sha256WithRSAEncryption
         25:59:a2:16:95:9c:04:f1:68:4e:1d:95:80:f7:b8:fa:66:3e:
         57:eb:ae:52:3b:63:75:a8:3f:c1:21:19:47:0b:11:52:65:87:
         b0:d3:e9:53:c1:30:81:34:75:a7:05:b5:03:f6:19:e7:0b:6c:
         03:09:0b:f2:b3:95:12:67:0a:55:60:6c:f3:db:95:98:27:39:
         8c:53:eb:dc:82:4c:0b:8a:20:02:7d:10:df:76:6b:4b:0d:97:
         12:f9:97:5c:71:c1:24:16:af:04:2d:d7:3a:ac:7a:84:e5:16:
         ec:af:85:f5:dc:d6:3d:49:e8:08:13:3a:c2:5f:7d:98:d7:09:
         55:65:63:9d:77:bb:87:53:4d:66:d4:de:14:da:a4:5b:19:f4:
         45:8b:97:5e:68:08:e2:0c:7d:1e:23:b9:1b:65:db:78:3b:20:
         df:5d:43:3a:f1:0a:2a:6e:ba:ea:9e:49:72:29:1a:eb:2a:72:
         8c:03:4b:81:52:ba:eb:c8:eb:ba:37:48:17:08:50:be:ff:93:
         d5:9a:5a:cb:9c:59:a6:70:0b:5d:0e:48:63:3d:a5:75:c7:a4:
         b2:fe:5e:be:a8:e9:00:6f:45:2b:03:b9:b3:22:ff:c9:f1:24:
         74:1d:8e:67:34:46:27:c0:8b:1f:71:9c:fa:25:96:18:e5:be:
         d9:24:87:9e:b6:f9:fe:24:fa:33:a4:c6:91:94:84:fc:af:30:
         45:3f:c3:86:96:e4:48:ce:e8:0c:1c:e5:3d:1d:c8:bc:96:79:
         d4:74:8e:f6:84:cb:3e:46:eb:61:ff:d5:f1:9c:cf:f8:1e:4a:
         c9:cb:48:43:18:68:5a:b2:a9:fb:9b:22:cf:69:c6:d0:bb:70:
         97:c0:c8:2f:09:18:6b:31:99:fc:17:b4:f8:36:cf:07:90:21:
         0b:84:37:fd:e4:cc:e4:a8:40:54:3f:5e:5d:db:da:6a:50:2d:
         de:b5:24:a5:58:bd:a5:20:86:2a:ba:43:02:2e:99:1b:ec:66:
         8f:4b:a4:d9:57:f3:b1:c7:cf:9c:2a:c0:fa:f9:95:44:2e:b5:
         41:a5:17:5b:d8:6e:db:c6:5d:58:96:17:fd:8c:bc:64:75:e2:
         83:be:bb:4d:28:63:c7:48:c2:96:34:3c:d4:20:af:24:1c:ae:
         20:66:6d:11:68:96:2d:3b:c4:11:5a:dc:d6:79:1d:9b:78:fa:
         d5:aa:46:7c:01:b5:31:ff:35:53:19:c2:c5:c4:ed:ea:b5:6d:
         9a:cf:31:ae:3a:d9:e0:54:f5:bd:3d:7d:08:86:57:71:f3:48:
         dd:45:33:d3:47:b0:ff:d3:9a:29:cc:b5:a7:31:c3:29:96:0d:
         4b:f8:e3:78:f3:b8:91:72
-----BEGIN CERTIFICATE-----
MIIFFDCCAvygAwIBAgIBAjANBgkqhkiG9w0BAQsFADCBkzELMAkGA1UEBhMCVVMx
CzAJBgNVBAgMAkNBMREwDwYDVQQHDAhTdGFuZm9yZDENMAsGA1UECgwEQk1JUjEO
MAwGA1UECwwFQ0VEQVIxHDAaBgNVBAMME21ldGFkYXRhY2VudGVyLm9yZ3gxJzAl
BgkqhkiG9w0BCQEWGG1ldGFkYXRhY2VudGVyQGdtYWlsLmNvbTAeFw0yMDEwMDYw
MDA4MTJaFw0yMzAxMDgwMDA4MTJaMIGJMQswCQYDVQQGEwJVUzELMAkGA1UECAwC
Q0ExDTALBgNVBAoMBEJNSVIxDjAMBgNVBAsMBUNFREFSMSUwIwYDVQQDDBxhcnRp
ZmFjdC5tZXRlZGF0YWNlbnRlci5vcmd4MScwJQYJKoZIhvcNAQkBFhhtZXRhZGF0
YWNlbnRlckBnbWFpbC5jb20wggEiMA0GCSqGSIb3DQEBAQUAA4IBDwAwggEKAoIB
AQCu7VDKdThBvwplobjXbdSAQn28ejZWxNmUFPLQY9jrGrVaYmdYaWg0D6vvfoQ5
ABeupPt9LuSxfTSzc7eKJcEqIyW2uC8VFPGtUyfKc9rNhC9AQASDSaZYljrck421
vSGbx+2ExfLPxY9Y+wX/cCBwP3iUnIuKhz1pO8C2wvb0NBsdql59RLHd9SQnpwxn
ssZChdfcEDMdcVVmWLNAw32ZP1AGKlcAQUt0UAvRpiHWsqxdbLV4OOaTTr45r3H8
F+N6xJ2OKL0Y3hd8+FjtEFQ+AqoS1qrj7YX3aJg6JGkUG+ijWG+4JODMFHFCxuFh
nFwcGij9fDSlIlysr1AcPXlNAgMBAAGjezB5MAkGA1UdEwQCMAAwLAYJYIZIAYb4
QgENBB8WHU9wZW5TU0wgR2VuZXJhdGVkIENlcnRpZmljYXRlMB0GA1UdDgQWBBSb
9Jla2JIWHYpjlwUq8E/R5tIkEDAfBgNVHSMEGDAWgBR3ozF6KS4qPaomk8fhjgku
MIgPljANBgkqhkiG9w0BAQsFAAOCAgEAJVmiFpWcBPFoTh2VgPe4+mY+V+uuUjtj
dag/wSEZRwsRUmWHsNPpU8EwgTR1pwW1A/YZ5wtsAwkL8rOVEmcKVWBs89uVmCc5
jFPr3IJMC4ogAn0Q33ZrSw2XEvmXXHHBJBavBC3XOqx6hOUW7K+F9dzWPUnoCBM6
wl99mNcJVWVjnXe7h1NNZtTeFNqkWxn0RYuXXmgI4gx9HiO5G2XbeDsg311DOvEK
Km666p5Jcika6ypyjANLgVK668jrujdIFwhQvv+T1Zpay5xZpnALXQ5IYz2ldcek
sv5evqjpAG9FKwO5syL/yfEkdB2OZzRGJ8CLH3Gc+iWWGOW+2SSHnrb5/iT6M6TG
kZSE/K8wRT/DhpbkSM7oDBzlPR3IvJZ51HSO9oTLPkbrYf/V8ZzP+B5KyctIQxho
WrKp+5siz2nG0Ltwl8DILwkYazGZ/Be0+DbPB5AhC4Q3/eTM5KhAVD9eXdvaalAt
3rUkpVi9pSCGKrpDAi6ZG+xmj0uk2VfzscfPnCrA+vmVRC61QaUXW9hu28ZdWJYX
/Yy8ZHXig767TShjx0jCljQ81CCvJByuIGZtEWiWLTvEEVrc1nkdm3j61apGfAG1
Mf81UxnCxcTt6rVtms8xrjrZ4FT1vT19CIZXcfNI3UUz00ew/9OaKcy1pzHDKZYN
S/jjePO4kXI=
-----END CERTIFICATE-----
