Certificate:
    Data:
        Version: 3 (0x2)
        Serial Number: 18 (0x12)
        Signature Algorithm: sha256WithRSAEncryption
        Issuer: C=US, ST=CA, L=Stanford, O=BMIR, OU=CEDAR, CN=metadatacenter.orgx/emailAddress=metadatacenter@gmail.com
        Validity
            Not Before: Oct  6 06:43:57 2020 GMT
            Not After : Jan  8 06:43:57 2023 GMT
        Subject: C=US, ST=CA, O=BMIR, OU=CEDAR, CN=artifact.metadatacenter.orgx/emailAddress=metadatacenter@gmail.com
        Subject Public Key Info:
            Public Key Algorithm: rsaEncryption
                RSA Public-Key: (2048 bit)
                Modulus:
                    00:e0:db:12:c4:8a:5b:f8:08:f3:6f:fe:71:1a:ca:
                    b8:29:c6:b1:54:03:04:1c:0f:06:90:70:40:d2:ab:
                    ad:11:08:41:29:a9:3e:3f:f3:7e:f4:3f:fc:08:cc:
                    db:2d:1b:1d:8f:05:0e:0b:60:d1:e7:79:98:50:7f:
                    54:6a:f3:48:80:af:b0:be:f1:3e:bb:68:ec:a9:86:
                    2a:60:2d:a2:8c:b1:82:f0:54:53:d5:57:d3:b6:e9:
                    45:7a:18:11:04:e2:3a:5b:53:5d:87:a8:5b:45:4f:
                    96:94:74:c7:c5:fa:62:30:ca:2c:8f:0e:5f:a7:c9:
                    33:45:c8:a3:28:50:33:ce:57:88:af:3e:9b:e8:00:
                    63:a4:a6:32:29:4a:18:9a:0e:44:96:58:17:e5:ff:
                    de:28:60:52:55:c1:57:6e:f7:42:52:ce:9e:06:cd:
                    05:17:63:9d:ac:b8:9c:cd:97:a1:12:c6:01:40:de:
                    ce:31:6d:c3:6a:1e:c7:b7:05:89:9b:ef:5f:40:db:
                    a3:c7:f1:41:36:ac:52:20:75:b6:f9:ef:4c:3c:16:
                    6e:8e:c6:f7:cc:9b:c6:69:16:88:e9:c4:b6:b5:28:
                    02:a9:33:87:87:b1:a1:4d:8a:6f:5b:ba:a3:12:73:
                    a9:b3:2b:b3:c3:ef:4f:64:f5:c8:28:b4:99:48:0e:
                    c7:57
                Exponent: 65537 (0x10001)
        X509v3 extensions:
            X509v3 Basic Constraints: 
                CA:FALSE
            Netscape Comment: 
                OpenSSL Generated Certificate
            X509v3 Subject Key Identifier: 
                0B:6E:55:84:E1:46:19:C3:09:B9:B6:63:B2:F9:7C:C8:0E:EF:D5:35
            X509v3 Authority Key Identifier: 
                keyid:77:A3:31:7A:29:2E:2A:3D:AA:26:93:C7:E1:8E:09:2E:30:88:0F:96

    Signature Algorithm: sha256WithRSAEncryption
         4f:30:ba:87:a8:a2:b0:3b:bf:c6:21:81:84:92:69:38:3a:d6:
         b3:68:de:e4:1e:13:63:b6:b3:83:27:20:54:e3:47:10:9a:2a:
         f0:78:d4:c8:e3:a2:cd:02:f9:4d:f5:43:16:21:96:7d:12:95:
         b2:66:d5:93:fe:c0:26:8c:08:03:03:b3:bd:ef:4c:a2:a0:55:
         9b:7a:f4:86:4c:82:42:59:77:75:46:02:2d:46:6f:f6:88:79:
         b2:dc:a0:2a:77:84:92:64:e9:6e:4e:1f:4e:c3:1e:b1:b4:6a:
         22:fa:74:12:06:b3:ba:3c:ce:55:58:c6:39:97:9b:e0:30:c1:
         f4:fe:7f:43:5c:78:ce:2e:ef:69:69:56:c2:09:45:d2:9e:e0:
         7b:a9:7d:80:c7:a7:38:09:b6:7c:82:ff:4a:67:6a:2c:63:50:
         33:a9:fb:89:03:bc:be:40:1a:d0:3c:b8:53:66:0c:e6:27:9f:
         d8:5b:43:e7:da:45:90:16:5f:8f:78:8c:73:8f:61:ae:04:58:
         56:d3:ad:ec:15:f2:6f:9d:4f:e8:13:f9:e7:3d:1a:f4:7d:a4:
         d2:86:2a:ee:41:73:6d:24:2c:9e:af:1f:ad:51:52:7d:11:2f:
         d7:7f:15:0c:c1:31:b6:48:3f:95:a7:02:95:e8:f3:ed:be:7e:
         a6:e8:d6:77:64:ea:58:15:8c:e2:7c:3a:97:d4:90:15:e4:fa:
         69:a0:48:01:c0:e9:43:62:27:06:82:54:d2:c7:62:79:cc:0c:
         68:36:bc:9b:77:1f:0d:bc:0d:ee:ec:98:55:1f:82:6e:4a:a3:
         ed:93:87:ce:a8:c2:38:08:47:08:84:8c:86:81:5e:6c:1b:d5:
         0f:e3:bd:bd:2f:04:ca:e3:20:62:20:e0:1a:1c:96:c3:01:97:
         06:dd:4f:24:95:7f:f7:ec:43:be:e9:86:83:f3:45:55:d3:90:
         a9:9e:57:bc:cd:23:8e:4d:8d:e9:32:eb:8d:87:1e:fe:c1:d3:
         2e:f8:44:21:51:c9:49:f0:2e:27:80:7e:79:33:fb:11:6e:16:
         79:89:c7:5b:de:4d:f4:bc:41:9d:4c:94:e0:d6:ee:fa:63:ae:
         fb:3e:50:6f:cb:ba:a0:68:fc:45:1e:c4:52:7f:6b:c9:0e:ab:
         f0:89:2c:fe:7c:6b:e9:0d:9f:6e:d1:a8:f2:2c:b1:3d:b3:a7:
         0b:cf:9a:90:b6:18:99:77:dd:2c:c1:c9:f9:e7:01:3f:c3:0c:
         95:32:77:12:26:c5:f0:83:29:ca:c9:d0:e3:16:fe:13:11:2c:
         90:92:e8:00:c1:49:74:32:75:2f:04:3f:7e:a6:a9:8d:45:29:
         fa:c6:e7:f0:86:8e:4f:fd
-----BEGIN CERTIFICATE-----
MIIFFDCCAvygAwIBAgIBEjANBgkqhkiG9w0BAQsFADCBkzELMAkGA1UEBhMCVVMx
CzAJBgNVBAgMAkNBMREwDwYDVQQHDAhTdGFuZm9yZDENMAsGA1UECgwEQk1JUjEO
MAwGA1UECwwFQ0VEQVIxHDAaBgNVBAMME21ldGFkYXRhY2VudGVyLm9yZ3gxJzAl
BgkqhkiG9w0BCQEWGG1ldGFkYXRhY2VudGVyQGdtYWlsLmNvbTAeFw0yMDEwMDYw
NjQzNTdaFw0yMzAxMDgwNjQzNTdaMIGJMQswCQYDVQQGEwJVUzELMAkGA1UECAwC
Q0ExDTALBgNVBAoMBEJNSVIxDjAMBgNVBAsMBUNFREFSMSUwIwYDVQQDDBxhcnRp
ZmFjdC5tZXRhZGF0YWNlbnRlci5vcmd4MScwJQYJKoZIhvcNAQkBFhhtZXRhZGF0
YWNlbnRlckBnbWFpbC5jb20wggEiMA0GCSqGSIb3DQEBAQUAA4IBDwAwggEKAoIB
AQDg2xLEilv4CPNv/nEayrgpxrFUAwQcDwaQcEDSq60RCEEpqT4/8370P/wIzNst
Gx2PBQ4LYNHneZhQf1Rq80iAr7C+8T67aOyphipgLaKMsYLwVFPVV9O26UV6GBEE
4jpbU12HqFtFT5aUdMfF+mIwyiyPDl+nyTNFyKMoUDPOV4ivPpvoAGOkpjIpShia
DkSWWBfl/94oYFJVwVdu90JSzp4GzQUXY52suJzNl6ESxgFA3s4xbcNqHse3BYmb
719A26PH8UE2rFIgdbb570w8Fm6OxvfMm8ZpFojpxLa1KAKpM4eHsaFNim9buqMS
c6mzK7PD709k9cgotJlIDsdXAgMBAAGjezB5MAkGA1UdEwQCMAAwLAYJYIZIAYb4
QgENBB8WHU9wZW5TU0wgR2VuZXJhdGVkIENlcnRpZmljYXRlMB0GA1UdDgQWBBQL
blWE4UYZwwm5tmOy+XzIDu/VNTAfBgNVHSMEGDAWgBR3ozF6KS4qPaomk8fhjgku
MIgPljANBgkqhkiG9w0BAQsFAAOCAgEATzC6h6iisDu/xiGBhJJpODrWs2je5B4T
Y7azgycgVONHEJoq8HjUyOOizQL5TfVDFiGWfRKVsmbVk/7AJowIAwOzve9MoqBV
m3r0hkyCQll3dUYCLUZv9oh5stygKneEkmTpbk4fTsMesbRqIvp0EgazujzOVVjG
OZeb4DDB9P5/Q1x4zi7vaWlWwglF0p7ge6l9gMenOAm2fIL/SmdqLGNQM6n7iQO8
vkAa0Dy4U2YM5ief2FtD59pFkBZfj3iMc49hrgRYVtOt7BXyb51P6BP55z0a9H2k
0oYq7kFzbSQsnq8frVFSfREv138VDMExtkg/lacClejz7b5+pujWd2TqWBWM4nw6
l9SQFeT6aaBIAcDpQ2InBoJU0sdiecwMaDa8m3cfDbwN7uyYVR+Cbkqj7ZOHzqjC
OAhHCISMhoFebBvVD+O9vS8EyuMgYiDgGhyWwwGXBt1PJJV/9+xDvumGg/NFVdOQ
qZ5XvM0jjk2N6TLrjYce/sHTLvhEIVHJSfAuJ4B+eTP7EW4WeYnHW95N9LxBnUyU
4Nbu+mOu+z5Qb8u6oGj8RR7EUn9ryQ6r8Iks/nxr6Q2fbtGo8iyxPbOnC8+akLYY
mXfdLMHJ+ecBP8MMlTJ3EibF8IMpysnQ4xb+ExEskJLoAMFJdDJ1LwQ/fqapjUUp
+sbn8IaOT/0=
-----END CERTIFICATE-----
