Certificate:
    Data:
        Version: 3 (0x2)
        Serial Number: 12 (0xc)
        Signature Algorithm: sha256WithRSAEncryption
        Issuer: C=US, ST=CA, L=Stanford, O=BMIR, OU=CEDAR, CN=metadatacenter.orgx/emailAddress=metadatacenter@gmail.com
        Validity
            Not Before: Oct  6 00:34:52 2020 GMT
            Not After : Jan  8 00:34:52 2023 GMT
        Subject: C=US, ST=CA, O=BMIR, OU=CEDAR, CN=schema.metadatacenter.orgx/emailAddress=metadatacenter@gmail.com
        Subject Public Key Info:
            Public Key Algorithm: rsaEncryption
                RSA Public-Key: (2048 bit)
                Modulus:
                    00:c9:59:41:d2:db:a0:3a:63:c5:b1:21:12:62:e3:
                    f1:13:c6:25:b1:f9:18:5e:93:88:45:d4:3f:8f:2c:
                    6f:4e:40:52:45:7b:9e:6d:82:40:c7:50:8d:03:29:
                    00:b3:e2:c3:39:f4:e2:bb:50:63:de:d8:2a:c4:e3:
                    95:62:fd:a1:44:d6:25:78:35:29:6d:b1:b1:8c:76:
                    fe:25:c7:de:bb:71:89:4f:90:81:81:92:da:2e:05:
                    69:85:a9:78:2c:e0:7f:04:c5:ca:0c:f6:4b:87:ff:
                    cf:cb:bf:3f:c5:db:50:9d:6f:12:9a:4a:78:91:0a:
                    87:b0:2c:2f:c9:50:73:fc:76:33:20:3f:5a:ee:ac:
                    93:fb:f0:8e:52:00:14:1f:a5:50:e8:c6:ef:d7:ec:
                    64:d5:c4:f5:25:08:5e:5b:0f:6b:36:85:7b:aa:46:
                    6e:90:5c:df:8c:8d:5b:1d:e2:6d:71:3b:25:05:10:
                    da:f2:13:a9:c4:e7:2d:b3:95:f2:7c:4a:9f:76:28:
                    b1:2c:a4:a2:49:2e:7a:24:45:aa:5d:60:f7:50:6d:
                    f1:9f:5f:53:35:8a:49:b9:d7:d7:82:b7:27:58:35:
                    67:54:5f:a8:ff:05:ae:01:cc:73:37:7e:3d:e2:79:
                    71:06:95:1a:ef:3e:23:e9:59:6b:38:44:4e:e5:3b:
                    1f:63
                Exponent: 65537 (0x10001)
        X509v3 extensions:
            X509v3 Basic Constraints: 
                CA:FALSE
            Netscape Comment: 
                OpenSSL Generated Certificate
            X509v3 Subject Key Identifier: 
                00:2D:C5:39:45:7C:07:40:D3:9A:29:DD:D8:74:1C:F2:B8:58:CF:71
            X509v3 Authority Key Identifier: 
                keyid:77:A3:31:7A:29:2E:2A:3D:AA:26:93:C7:E1:8E:09:2E:30:88:0F:96

    Signature Algorithm: sha256WithRSAEncryption
         b1:20:91:b5:ef:fd:2b:0f:f8:e6:32:0a:f8:78:39:68:63:5d:
         1c:04:38:03:52:7b:15:ae:09:ad:6d:ca:cc:7d:cc:a5:6d:75:
         a3:6d:af:df:86:8e:fb:43:4d:4d:71:5a:9c:94:3b:74:8c:41:
         56:15:5f:16:f6:1b:96:77:2c:34:81:43:5e:7b:0b:8c:99:99:
         99:00:b5:59:83:63:a7:31:cf:cb:e8:3a:2f:b0:3e:83:53:34:
         86:84:97:60:93:ef:3c:d6:77:89:23:81:41:5a:b1:fc:cd:80:
         a9:fe:61:14:a3:fd:d5:3b:2a:f4:db:9f:d9:0d:6c:e1:5a:51:
         4f:b9:90:26:3c:40:90:a5:c1:fa:a4:26:c2:f9:3b:57:d2:ab:
         92:82:84:35:b8:00:ad:a5:23:55:31:3f:56:73:79:fb:16:c3:
         13:b5:1f:a5:92:6b:96:72:b7:17:73:9d:bb:67:5b:a6:0d:3f:
         2c:86:22:7e:a8:5f:c2:b6:ca:5f:74:a4:05:4b:72:fa:93:53:
         4f:0f:22:13:2c:65:a4:ed:e2:8c:53:f8:34:ab:d6:6a:fe:22:
         a0:45:ea:11:15:be:78:a2:30:82:eb:9a:0a:a5:19:f9:36:03:
         60:0f:d1:f8:e3:e5:8f:d8:fd:ac:aa:37:8d:5c:b6:fa:dc:32:
         54:fd:35:f0:c9:9f:ec:b8:1c:cb:38:59:3b:c0:2e:77:ee:e4:
         57:39:9a:14:5e:1b:4c:d1:54:2b:1c:2c:a9:ad:91:fa:49:09:
         36:12:33:0a:ba:9b:80:4c:c2:96:d1:5c:da:2c:3c:83:ff:34:
         f9:09:d3:c4:88:77:18:49:65:3b:08:30:80:70:09:51:ec:89:
         2d:bf:b3:ca:eb:57:b4:5c:eb:ee:f5:65:65:5e:e4:2e:f1:7c:
         9e:56:7a:fa:ab:e8:50:2f:e8:f7:c8:ee:00:63:db:01:5d:64:
         b8:67:85:ce:99:e7:fd:55:57:51:45:97:74:a5:9d:af:ae:55:
         e2:0c:64:ab:da:63:3a:cf:02:db:e2:26:55:e3:f1:bb:bb:76:
         1d:fe:ed:7d:d1:4e:bd:3a:4d:ad:31:97:3e:ca:c4:a7:af:92:
         91:1c:7f:4c:ad:1b:c6:08:d1:76:64:58:f2:b7:72:07:c9:5c:
         b1:d5:a1:13:5b:aa:58:ad:2b:d5:2e:b6:82:36:19:31:1f:b9:
         d9:92:e4:38:aa:e5:74:34:ce:89:6f:29:b4:e2:b4:a5:fd:30:
         d8:c3:83:2e:42:f2:da:c7:d4:1f:68:57:c8:31:80:a3:44:c7:
         08:b2:7a:1c:08:e1:c0:f6:cd:d2:b7:01:80:54:28:ec:76:6b:
         53:1e:e6:97:36:90:05:51
-----BEGIN CERTIFICATE-----
MIIFEjCCAvqgAwIBAgIBDDANBgkqhkiG9w0BAQsFADCBkzELMAkGA1UEBhMCVVMx
CzAJBgNVBAgMAkNBMREwDwYDVQQHDAhTdGFuZm9yZDENMAsGA1UECgwEQk1JUjEO
MAwGA1UECwwFQ0VEQVIxHDAaBgNVBAMME21ldGFkYXRhY2VudGVyLm9yZ3gxJzAl
BgkqhkiG9w0BCQEWGG1ldGFkYXRhY2VudGVyQGdtYWlsLmNvbTAeFw0yMDEwMDYw
MDM0NTJaFw0yMzAxMDgwMDM0NTJaMIGHMQswCQYDVQQGEwJVUzELMAkGA1UECAwC
Q0ExDTALBgNVBAoMBEJNSVIxDjAMBgNVBAsMBUNFREFSMSMwIQYDVQQDDBpzY2hl
bWEubWV0YWRhdGFjZW50ZXIub3JneDEnMCUGCSqGSIb3DQEJARYYbWV0YWRhdGFj
ZW50ZXJAZ21haWwuY29tMIIBIjANBgkqhkiG9w0BAQEFAAOCAQ8AMIIBCgKCAQEA
yVlB0tugOmPFsSESYuPxE8YlsfkYXpOIRdQ/jyxvTkBSRXuebYJAx1CNAykAs+LD
OfTiu1Bj3tgqxOOVYv2hRNYleDUpbbGxjHb+Jcfeu3GJT5CBgZLaLgVphal4LOB/
BMXKDPZLh//Py78/xdtQnW8Smkp4kQqHsCwvyVBz/HYzID9a7qyT+/COUgAUH6VQ
6Mbv1+xk1cT1JQheWw9rNoV7qkZukFzfjI1bHeJtcTslBRDa8hOpxOcts5XyfEqf
diixLKSiSS56JEWqXWD3UG3xn19TNYpJudfXgrcnWDVnVF+o/wWuAcxzN3494nlx
BpUa7z4j6VlrOERO5TsfYwIDAQABo3sweTAJBgNVHRMEAjAAMCwGCWCGSAGG+EIB
DQQfFh1PcGVuU1NMIEdlbmVyYXRlZCBDZXJ0aWZpY2F0ZTAdBgNVHQ4EFgQUAC3F
OUV8B0DTmind2HQc8rhYz3EwHwYDVR0jBBgwFoAUd6MxeikuKj2qJpPH4Y4JLjCI
D5YwDQYJKoZIhvcNAQELBQADggIBALEgkbXv/SsP+OYyCvh4OWhjXRwEOANSexWu
Ca1tysx9zKVtdaNtr9+GjvtDTU1xWpyUO3SMQVYVXxb2G5Z3LDSBQ157C4yZmZkA
tVmDY6cxz8voOi+wPoNTNIaEl2CT7zzWd4kjgUFasfzNgKn+YRSj/dU7KvTbn9kN
bOFaUU+5kCY8QJClwfqkJsL5O1fSq5KChDW4AK2lI1UxP1ZzefsWwxO1H6WSa5Zy
txdznbtnW6YNPyyGIn6oX8K2yl90pAVLcvqTU08PIhMsZaTt4oxT+DSr1mr+IqBF
6hEVvniiMILrmgqlGfk2A2AP0fjj5Y/Y/ayqN41ctvrcMlT9NfDJn+y4HMs4WTvA
Lnfu5Fc5mhReG0zRVCscLKmtkfpJCTYSMwq6m4BMwpbRXNosPIP/NPkJ08SIdxhJ
ZTsIMIBwCVHsiS2/s8rrV7Rc6+71ZWVe5C7xfJ5Wevqr6FAv6PfI7gBj2wFdZLhn
hc6Z5/1VV1FFl3Slna+uVeIMZKvaYzrPAtviJlXj8bu7dh3+7X3RTr06Ta0xlz7K
xKevkpEcf0ytG8YI0XZkWPK3cgfJXLHVoRNbqlitK9UutoI2GTEfudmS5Diq5XQ0
zolvKbTitKX9MNjDgy5C8trH1B9oV8gxgKNExwiyehwI4cD2zdK3AYBUKOx2a1Me
5pc2kAVR
-----END CERTIFICATE-----
