Certificate:
    Data:
        Version: 3 (0x2)
        Serial Number: 14 (0xe)
        Signature Algorithm: sha256WithRSAEncryption
        Issuer: C=US, ST=CA, L=Stanford, O=BMIR, OU=CEDAR, CN=metadatacenter.orgx/emailAddress=metadatacenter@gmail.com
        Validity
            Not Before: Oct  6 00:38:09 2020 GMT
            Not After : Jan  8 00:38:09 2023 GMT
        Subject: C=US, ST=CA, O=BMIR, OU=CEDAR, CN=terminology.metadatacenter.orgx/emailAddress=metadatacenter@gmail.com
        Subject Public Key Info:
            Public Key Algorithm: rsaEncryption
                RSA Public-Key: (2048 bit)
                Modulus:
                    00:d0:9c:da:16:49:de:18:98:af:b5:86:26:47:2f:
                    6d:5c:06:47:4e:96:fe:21:a9:05:28:7e:b1:6a:be:
                    3a:17:90:62:4c:f6:24:23:f2:e1:56:e6:a5:43:58:
                    cf:84:bc:a0:cb:ca:1c:6f:c3:94:17:74:c0:a0:e7:
                    fe:a2:2e:9d:b3:6d:aa:40:f4:7f:69:32:32:76:e2:
                    0e:9a:83:78:0a:f7:e6:be:f1:0a:03:36:50:d5:13:
                    04:cb:4e:d6:4d:8c:cc:6c:0d:d8:01:7d:74:79:52:
                    1f:67:6e:c4:77:53:be:24:08:8c:f1:f1:c5:28:9c:
                    a2:aa:cf:83:c8:ac:db:01:f7:c6:f6:fa:ea:c3:b9:
                    0e:25:c9:6a:a9:69:92:f5:98:23:57:8c:e1:9d:a1:
                    ce:81:25:bf:ad:55:5a:88:6d:ae:e2:22:c9:b9:58:
                    4c:56:e9:ac:47:38:84:42:91:03:4e:2b:85:44:79:
                    e5:03:4c:69:c9:12:de:a0:1e:21:38:cf:4f:59:93:
                    48:6e:58:77:c8:b7:f0:c2:be:04:0b:d9:cc:f6:eb:
                    58:af:d8:64:70:e0:9a:0b:e2:0a:a2:26:16:44:91:
                    b7:d5:8c:89:aa:75:ce:98:f5:a1:e1:f2:3f:07:39:
                    89:dd:ad:f2:9c:60:40:fd:88:ce:28:53:c5:58:b8:
                    70:05
                Exponent: 65537 (0x10001)
        X509v3 extensions:
            X509v3 Basic Constraints: 
                CA:FALSE
            Netscape Comment: 
                OpenSSL Generated Certificate
            X509v3 Subject Key Identifier: 
                BE:45:41:77:0C:66:5A:C3:AE:E8:29:56:58:EE:9F:8E:7A:7C:39:A4
            X509v3 Authority Key Identifier: 
                keyid:77:A3:31:7A:29:2E:2A:3D:AA:26:93:C7:E1:8E:09:2E:30:88:0F:96

    Signature Algorithm: sha256WithRSAEncryption
         a4:b1:da:c6:be:b7:df:ec:eb:18:86:a0:7e:dd:03:76:6b:26:
         50:10:7e:76:b7:b3:26:7f:bb:fc:a0:3a:2f:9b:de:7c:63:e5:
         2b:99:d1:bb:08:af:4f:66:ff:cd:e9:5d:20:92:7d:68:79:9a:
         0c:9f:31:f2:a0:c0:2d:40:df:3b:9b:d6:ea:d0:7d:a6:6a:63:
         72:31:50:93:ef:1a:de:c4:49:77:b8:d3:89:c5:f1:5e:6d:2a:
         79:3c:c4:0b:3a:72:2d:8b:7a:72:4f:e4:22:68:37:8b:3f:24:
         f2:eb:0c:d6:9f:12:ed:8a:9e:0f:b4:00:1a:e4:d3:d7:a3:64:
         5c:ea:d5:7e:c9:72:74:9e:1f:5f:58:64:79:83:28:44:e7:5c:
         a5:ba:e0:6d:9b:3d:c3:09:b9:7b:90:b2:cb:56:d3:58:3b:d3:
         d8:ca:ea:ff:d8:5c:78:ea:1e:d1:a2:d5:9a:a1:fb:29:18:4a:
         df:74:89:8f:03:5e:3c:7a:ba:e1:62:85:e4:96:53:07:5e:92:
         a2:b9:62:2b:73:28:1d:6a:32:a3:72:b0:12:7d:03:b9:ea:9b:
         f2:78:80:89:a5:9a:67:49:74:ca:c9:9c:07:45:01:a3:a0:f3:
         d9:45:e3:0c:14:f8:1e:5b:46:22:ec:b9:69:0b:6b:45:3a:a0:
         61:06:f9:42:36:41:c5:31:36:50:03:00:ac:da:74:5b:a5:26:
         54:cd:e7:18:aa:03:95:b4:97:56:99:ea:ef:c3:e3:f5:de:69:
         8e:2e:1b:2c:4a:6c:17:7b:8a:53:dc:08:a0:6c:17:6e:ba:dd:
         d4:75:16:70:f8:64:6a:56:b5:93:5f:87:57:05:83:8f:85:e9:
         9d:5f:e3:d9:d8:31:6d:14:14:43:05:67:d7:d0:93:b5:02:dd:
         18:9a:d6:26:c4:dd:b3:17:9e:67:a4:56:c1:86:30:f9:89:72:
         92:0f:3c:09:5a:c9:44:3c:76:1d:e8:16:0a:78:83:cb:1b:22:
         20:3b:a4:ca:da:47:d2:5e:0e:c1:b0:76:6d:db:df:cf:cf:86:
         27:f1:69:39:c2:09:4f:6a:48:f1:00:82:ba:22:ce:ae:bc:ec:
         dc:c9:83:c3:91:0c:94:eb:e5:ac:aa:77:58:b5:b0:b7:d9:5e:
         0d:69:ef:66:d1:de:44:b1:a4:d6:6d:6d:63:b3:57:eb:8b:38:
         dd:88:cf:e3:f9:a2:18:d1:cc:6a:91:f6:de:2d:c0:63:02:af:
         93:11:d6:db:ae:65:ba:d7:03:69:8d:0d:c0:c9:f1:ad:c8:88:
         d0:52:6c:24:56:1d:2b:2e:96:ea:2c:42:8c:34:66:05:95:ab:
         75:f5:1c:78:f4:46:01:6c
-----BEGIN CERTIFICATE-----
MIIFFzCCAv+gAwIBAgIBDjANBgkqhkiG9w0BAQsFADCBkzELMAkGA1UEBhMCVVMx
CzAJBgNVBAgMAkNBMREwDwYDVQQHDAhTdGFuZm9yZDENMAsGA1UECgwEQk1JUjEO
MAwGA1UECwwFQ0VEQVIxHDAaBgNVBAMME21ldGFkYXRhY2VudGVyLm9yZ3gxJzAl
BgkqhkiG9w0BCQEWGG1ldGFkYXRhY2VudGVyQGdtYWlsLmNvbTAeFw0yMDEwMDYw
MDM4MDlaFw0yMzAxMDgwMDM4MDlaMIGMMQswCQYDVQQGEwJVUzELMAkGA1UECAwC
Q0ExDTALBgNVBAoMBEJNSVIxDjAMBgNVBAsMBUNFREFSMSgwJgYDVQQDDB90ZXJt
aW5vbG9neS5tZXRhZGF0YWNlbnRlci5vcmd4MScwJQYJKoZIhvcNAQkBFhhtZXRh
ZGF0YWNlbnRlckBnbWFpbC5jb20wggEiMA0GCSqGSIb3DQEBAQUAA4IBDwAwggEK
AoIBAQDQnNoWSd4YmK+1hiZHL21cBkdOlv4hqQUofrFqvjoXkGJM9iQj8uFW5qVD
WM+EvKDLyhxvw5QXdMCg5/6iLp2zbapA9H9pMjJ24g6ag3gK9+a+8QoDNlDVEwTL
TtZNjMxsDdgBfXR5Uh9nbsR3U74kCIzx8cUonKKqz4PIrNsB98b2+urDuQ4lyWqp
aZL1mCNXjOGdoc6BJb+tVVqIba7iIsm5WExW6axHOIRCkQNOK4VEeeUDTGnJEt6g
HiE4z09Zk0huWHfIt/DCvgQL2cz261iv2GRw4JoL4gqiJhZEkbfVjImqdc6Y9aHh
8j8HOYndrfKcYED9iM4oU8VYuHAFAgMBAAGjezB5MAkGA1UdEwQCMAAwLAYJYIZI
AYb4QgENBB8WHU9wZW5TU0wgR2VuZXJhdGVkIENlcnRpZmljYXRlMB0GA1UdDgQW
BBS+RUF3DGZaw67oKVZY7p+Oenw5pDAfBgNVHSMEGDAWgBR3ozF6KS4qPaomk8fh
jgkuMIgPljANBgkqhkiG9w0BAQsFAAOCAgEApLHaxr633+zrGIagft0DdmsmUBB+
drezJn+7/KA6L5vefGPlK5nRuwivT2b/zeldIJJ9aHmaDJ8x8qDALUDfO5vW6tB9
pmpjcjFQk+8a3sRJd7jTicXxXm0qeTzECzpyLYt6ck/kImg3iz8k8usM1p8S7Yqe
D7QAGuTT16NkXOrVfslydJ4fX1hkeYMoROdcpbrgbZs9wwm5e5Cyy1bTWDvT2Mrq
/9hceOoe0aLVmqH7KRhK33SJjwNePHq64WKF5JZTB16SorliK3MoHWoyo3KwEn0D
ueqb8niAiaWaZ0l0ysmcB0UBo6Dz2UXjDBT4HltGIuy5aQtrRTqgYQb5QjZBxTE2
UAMArNp0W6UmVM3nGKoDlbSXVpnq78Pj9d5pji4bLEpsF3uKU9wIoGwXbrrd1HUW
cPhkala1k1+HVwWDj4XpnV/j2dgxbRQUQwVn19CTtQLdGJrWJsTdsxeeZ6RWwYYw
+Ylykg88CVrJRDx2HegWCniDyxsiIDukytpH0l4OwbB2bdvfz8+GJ/FpOcIJT2pI
8QCCuiLOrrzs3MmDw5EMlOvlrKp3WLWwt9leDWnvZtHeRLGk1m1tY7NX64s43YjP
4/miGNHMapH23i3AYwKvkxHW265lutcDaY0NwMnxrciI0FJsJFYdKy6W6ixCjDRm
BZWrdfUcePRGAWw=
-----END CERTIFICATE-----
