Certificate:
    Data:
        Version: 3 (0x2)
        Serial Number: 2 (0x2)
        Signature Algorithm: sha256WithRSAEncryption
        Issuer: C=US, ST=California, L=Stanford, O=BMIR, OU=CEDAR, CN=metadatacenter.orgx/emailAddress=metadatacenter@gmail.com
        Validity
            Not Before: May 25 21:11:51 2017 GMT
            Not After : May 23 21:11:51 2027 GMT
        Subject: C=US, ST=California, O=BMIR, OU=CEDAR, CN=*.metadatacenter.orgx
        Subject Public Key Info:
            Public Key Algorithm: rsaEncryption
            RSA Public Key: (1024 bit)
                Modulus (1024 bit):
                    00:bb:84:0a:80:f9:9c:9e:0a:90:8b:5a:1d:68:9a:
                    8c:35:5e:95:b4:05:1d:36:63:a6:0d:d2:64:1c:40:
                    fc:3e:06:cf:c3:c8:59:a6:2c:39:1c:e4:73:d5:4c:
                    80:48:b0:dd:fc:54:cd:f4:57:8b:06:8a:a0:52:54:
                    04:a9:38:a6:89:5e:9d:5e:bd:4e:96:94:e5:76:7c:
                    b2:87:ef:5d:37:50:1a:6a:9c:fa:05:d3:51:af:19:
                    0c:4b:e0:11:83:a1:f8:a7:5d:bf:ad:9a:7f:6a:28:
                    67:74:9f:1b:7d:b4:3c:dc:ba:86:c0:5e:5c:01:f4:
                    24:2a:ae:a2:92:2b:17:ec:63
                Exponent: 65537 (0x10001)
        X509v3 extensions:
            X509v3 Basic Constraints: 
                CA:FALSE
            Netscape Comment: 
                OpenSSL Generated Certificate
            X509v3 Subject Key Identifier: 
                FD:D6:01:2F:3A:94:65:11:BD:79:3E:82:15:2D:B5:F2:82:96:E7:CF
            X509v3 Authority Key Identifier: 
                keyid:FB:A7:23:D3:57:E6:17:E1:D9:AF:FE:71:2C:97:E1:EA:94:5D:FC:D6

            X509v3 Subject Alternative Name: 
                DNS:*.metadatacenter.orgx
    Signature Algorithm: sha256WithRSAEncryption
        1f:72:8c:2c:43:be:2c:e4:0f:29:0d:9d:a3:01:c2:ef:3f:69:
        6d:6c:20:f9:1f:64:d5:91:76:95:72:0b:c0:7a:c2:6e:b3:23:
        33:bf:97:3c:9c:fa:a6:48:c3:ce:e8:21:d2:aa:fb:a8:87:b5:
        7f:c8:31:79:6e:72:86:3f:69:02:17:36:e4:53:90:37:57:14:
        88:b0:f2:97:9f:c9:49:1d:91:72:d0:33:4c:dc:95:9d:43:8b:
        2c:c0:aa:54:f2:85:72:94:de:88:07:8b:60:39:ab:99:91:94:
        22:1a:1a:25:7c:5d:18:74:43:21:e0:a5:65:59:bb:3c:95:58:
        76:c4:bd:4c:d1:21:a6:06:52:4c:2c:4e:a8:e1:d7:44:18:f0:
        aa:37:4a:7e:be:31:ec:89:f7:2f:ae:52:b3:ed:33:35:95:10:
        04:ed:c2:79:89:d8:c7:af:16:4e:81:9d:eb:8e:72:d4:be:38:
        3b:bc:dd:fc:2c:b8:d4:02:b5:3b:b9:e8:be:53:0e:39:86:42:
        30:eb:af:8f:d5:8b:96:8c:fe:b2:af:ad:e4:ca:64:2b:ab:42:
        53:6d:80:1d:49:92:3e:ef:19:18:e4:7b:5e:bb:71:0e:c3:14:
        f7:31:c8:a3:d4:dd:ff:0c:c1:73:e9:12:fb:98:8f:06:e8:83:
        b7:96:c4:04:ef:86:5f:73:37:e7:e4:c9:2b:c6:59:df:5b:3e:
        69:40:5b:3b:bf:85:7d:21:72:ce:08:50:9f:22:a7:bf:26:29:
        a3:a1:6b:6d:2f:7b:0a:0f:d3:8a:7e:bb:be:0a:92:63:d9:a1:
        9c:2f:2c:34:a1:ba:59:b5:3a:94:37:3f:ec:55:35:32:75:48:
        d9:77:f1:f9:b0:02:a8:cc:88:5b:8f:b4:40:dd:b5:b0:11:7f:
        f2:58:51:6c:9f:12:52:c1:8a:91:a0:cd:cf:92:8e:8c:a1:55:
        c3:b8:37:3a:95:bd:f0:a5:f9:e9:08:c7:2b:2a:e7:96:fc:c7:
        62:2c:68:79:3a:97:05:d2:0b:dc:7f:50:a4:01:e7:65:16:77:
        5e:b4:20:f2:ab:ab:c1:b2:e9:2b:9b:3e:95:d6:4a:4e:d8:94:
        10:54:1b:46:09:4b:f0:f1:19:04:38:dd:d1:95:f4:b4:24:75:
        85:94:3b:16:e3:fe:ca:1e:26:ac:70:0b:72:03:10:a5:e1:fb:
        af:d4:09:bf:31:c3:c0:73:3f:91:15:7f:91:19:4f:e3:71:e1:
        d7:7f:d0:2a:f8:0d:df:31:32:7b:69:c6:1e:17:a8:94:d8:fc:
        c0:e0:49:1b:3d:29:6d:3a:0d:63:9a:44:0f:04:27:d2:f5:dc:
        09:35:72:71:b8:9b:31:52
-----BEGIN CERTIFICATE-----
MIIEkzCCAnugAwIBAgIBAjANBgkqhkiG9w0BAQsFADCBmzELMAkGA1UEBhMCVVMx
EzARBgNVBAgMCkNhbGlmb3JuaWExETAPBgNVBAcMCFN0YW5mb3JkMQ0wCwYDVQQK
DARCTUlSMQ4wDAYDVQQLDAVDRURBUjEcMBoGA1UEAwwTbWV0YWRhdGFjZW50ZXIu
b3JneDEnMCUGCSqGSIb3DQEJARYYbWV0YWRhdGFjZW50ZXJAZ21haWwuY29tMB4X
DTE3MDUyNTIxMTE1MVoXDTI3MDUyMzIxMTE1MVowYTELMAkGA1UEBhMCVVMxEzAR
BgNVBAgMCkNhbGlmb3JuaWExDTALBgNVBAoMBEJNSVIxDjAMBgNVBAsMBUNFREFS
MR4wHAYDVQQDDBUqLm1ldGFkYXRhY2VudGVyLm9yZ3gwgZ8wDQYJKoZIhvcNAQEB
BQADgY0AMIGJAoGBALuECoD5nJ4KkItaHWiajDVelbQFHTZjpg3SZBxA/D4Gz8PI
WaYsORzkc9VMgEiw3fxUzfRXiwaKoFJUBKk4polenV69TpaU5XZ8sofvXTdQGmqc
+gXTUa8ZDEvgEYOh+Kddv62af2ooZ3SfG320PNy6hsBeXAH0JCquopIrF+xjAgMB
AAGjgZ4wgZswCQYDVR0TBAIwADAsBglghkgBhvhCAQ0EHxYdT3BlblNTTCBHZW5l
cmF0ZWQgQ2VydGlmaWNhdGUwHQYDVR0OBBYEFP3WAS86lGURvXk+ghUttfKClufP
MB8GA1UdIwQYMBaAFPunI9NX5hfh2a/+cSyX4eqUXfzWMCAGA1UdEQQZMBeCFSou
bWV0YWRhdGFjZW50ZXIub3JneDANBgkqhkiG9w0BAQsFAAOCAgEAH3KMLEO+LOQP
KQ2dowHC7z9pbWwg+R9k1ZF2lXILwHrCbrMjM7+XPJz6pkjDzugh0qr7qIe1f8gx
eW5yhj9pAhc25FOQN1cUiLDyl5/JSR2RctAzTNyVnUOLLMCqVPKFcpTeiAeLYDmr
mZGUIhoaJXxdGHRDIeClZVm7PJVYdsS9TNEhpgZSTCxOqOHXRBjwqjdKfr4x7In3
L65Ss+0zNZUQBO3CeYnYx68WToGd645y1L44O7zd/Cy41AK1O7novlMOOYZCMOuv
j9WLloz+sq+t5MpkK6tCU22AHUmSPu8ZGOR7XrtxDsMU9zHIo9Td/wzBc+kS+5iP
BuiDt5bEBO+GX3M35+TJK8ZZ31s+aUBbO7+FfSFyzghQnyKnvyYpo6FrbS97Cg/T
in67vgqSY9mhnC8sNKG6WbU6lDc/7FU1MnVI2Xfx+bACqMyIW4+0QN21sBF/8lhR
bJ8SUsGKkaDNz5KOjKFVw7g3OpW98KX56QjHKyrnlvzHYixoeTqXBdIL3H9QpAHn
ZRZ3XrQg8qurwbLpK5s+ldZKTtiUEFQbRglL8PEZBDjd0ZX0tCR1hZQ7FuP+yh4m
rHALcgMQpeH7r9QJvzHDwHM/kRV/kRlP43Hh13/QKvgN3zEye2nGHheolNj8wOBJ
Gz0pbToNY5pEDwQn0vXcCTVycbibMVI=
-----END CERTIFICATE-----
