Certificate:
    Data:
        Version: 3 (0x2)
        Serial Number: 16 (0x10)
    Signature Algorithm: sha256WithRSAEncryption
        Issuer: C=US, ST=California, L=Stanford, O=BMIR, OU=CEDAR, CN=metadatacenter.orgx/emailAddress=metadatacenter@gmail.com
        Validity
            Not Before: Jun 11 23:40:51 2018 GMT
            Not After : Jun  8 23:40:51 2028 GMT
        Subject: C=US, ST=California, O=BMIR, OU=CEDAR, CN=worker.metadatacenter.orgx/emailAddress=metadatacenter@gmail.com
        Subject Public Key Info:
            Public Key Algorithm: rsaEncryption
                Public-Key: (2048 bit)
                Modulus:
                    00:b6:67:54:05:38:d7:e0:ea:ff:3c:f3:22:56:68:
                    20:f7:fc:1c:0e:4a:4e:57:d5:b3:35:92:de:21:9a:
                    16:28:6b:6a:07:10:2f:24:83:aa:4f:ef:b7:64:9d:
                    12:2e:a9:39:ac:6e:88:e4:18:1c:a1:a2:26:c6:a8:
                    3d:f5:95:cb:7d:97:2a:11:e0:9a:8d:e0:27:fc:0e:
                    69:93:62:14:67:68:3d:28:70:74:7f:7d:b7:21:1a:
                    b5:1b:83:ce:15:c9:9d:9a:6a:fb:71:ca:8c:63:e7:
                    bc:96:05:29:ae:52:3f:2e:1a:01:f8:be:c2:12:79:
                    64:56:2f:78:5c:78:0a:90:07:da:6e:32:64:bb:8f:
                    76:c8:27:5e:95:c5:ce:8e:2f:ff:bd:a1:9d:4b:3d:
                    a9:ad:86:38:45:eb:82:24:b9:c8:08:3f:53:cf:fa:
                    56:9a:4f:c2:67:2b:eb:d2:f8:47:6c:49:54:89:55:
                    ea:77:f0:bb:cc:2d:54:35:77:26:64:0d:7f:3b:51:
                    50:49:69:3f:d8:2c:f1:bb:d0:4a:de:59:c6:03:ed:
                    08:62:96:a9:ee:f3:ce:cc:2e:0e:b6:df:f1:23:8b:
                    2b:08:ba:c6:22:e9:88:87:5f:f3:4b:42:6f:f3:52:
                    0b:b6:2c:56:db:35:e2:cd:6b:43:82:53:d7:a8:85:
                    2e:a7
                Exponent: 65537 (0x10001)
        X509v3 extensions:
            X509v3 Basic Constraints: 
                CA:FALSE
            Netscape Comment: 
                OpenSSL Generated Certificate
            X509v3 Subject Key Identifier: 
                BB:84:88:A7:D7:C5:99:F1:A8:D8:21:9B:03:36:45:FA:D3:2A:AE:F7
            X509v3 Authority Key Identifier: 
                keyid:FB:A7:23:D3:57:E6:17:E1:D9:AF:FE:71:2C:97:E1:EA:94:5D:FC:D6

            X509v3 Subject Alternative Name: 
                DNS:*.metadatacenter.orgx
    Signature Algorithm: sha256WithRSAEncryption
         12:4d:5a:da:55:43:47:f1:62:01:31:5e:81:f8:fa:9c:72:8d:
         b6:b5:b8:22:8c:c1:1a:ef:de:94:0d:4d:a1:7c:dc:a7:3f:9e:
         2d:0e:c9:d2:ac:c0:0c:cf:a1:89:8d:65:77:55:e5:8a:4a:53:
         59:7b:b1:63:d0:e7:36:63:a1:84:45:e4:a3:95:c9:c3:60:5c:
         eb:32:fa:db:84:ed:e4:6e:66:b9:b7:b1:28:7a:88:ae:cd:ab:
         af:1e:71:ea:b6:4e:de:da:ca:56:f5:72:e0:43:05:2f:b6:ab:
         64:b9:37:be:9b:ee:e1:77:00:4d:6b:fb:5d:b6:bd:a3:66:0f:
         58:14:31:c1:f2:98:10:d0:08:5f:22:4a:c1:0a:73:04:d4:b0:
         b2:13:20:c9:d9:e0:5f:11:1c:5a:f4:39:07:aa:93:f4:30:53:
         11:ee:45:ef:2a:c2:2c:e9:e1:08:fd:20:a9:61:50:23:74:c6:
         0f:97:c8:5a:0f:ca:28:a5:b9:fc:dd:99:63:88:0c:62:18:50:
         53:71:aa:a7:bc:11:54:67:d2:fc:c5:78:bc:b9:0f:de:aa:13:
         14:e6:90:27:66:b5:23:bf:cd:0c:0f:1f:0e:8d:3d:95:7f:7b:
         d9:70:23:71:fd:5c:04:ef:d2:f8:86:98:75:55:80:bd:29:b6:
         7b:0a:8f:39:b7:66:08:db:de:ad:57:21:7f:75:95:2c:e9:88:
         17:81:0a:62:8e:5f:d6:ea:d7:b8:ed:dd:30:f9:ed:30:7b:4b:
         a4:5f:7e:03:13:65:e5:8a:7c:e6:ec:ec:45:eb:91:69:0a:7c:
         a6:80:4e:ca:7f:36:ce:49:b2:34:a8:1a:2f:84:c9:cf:18:f4:
         2b:74:43:3b:2f:07:d4:12:ff:14:db:9b:25:10:01:97:2b:35:
         51:28:72:ea:5c:37:df:1c:8b:7b:5c:4b:7a:53:f3:83:42:00:
         53:c0:bb:c9:38:6a:28:a5:f9:41:c5:70:ec:f2:9a:48:87:70:
         cf:3f:c6:95:00:2a:43:8d:ae:64:33:49:fa:38:32:d3:36:c4:
         eb:68:52:1d:d1:51:4e:40:c7:5d:c4:b0:3c:3a:99:23:29:61:
         91:44:ec:ce:6c:45:8d:6d:47:3e:9f:01:6b:ca:e3:d6:36:91:
         e3:cf:28:ab:c6:c4:13:bc:4d:ad:16:a0:4b:09:63:5d:9e:5d:
         b0:72:d4:46:87:1f:22:11:76:7b:9f:d9:5c:17:7a:6d:05:e0:
         66:d6:cd:a3:05:d6:46:f3:ad:30:8c:7d:94:20:ac:6a:29:79:
         f3:38:4c:80:09:26:5c:c5:dd:6c:3b:6b:39:86:ae:68:04:f4:
         77:92:ad:c5:28:ca:c4:9c
-----BEGIN CERTIFICATE-----
MIIFRjCCAy6gAwIBAgIBEDANBgkqhkiG9w0BAQsFADCBmzELMAkGA1UEBhMCVVMx
EzARBgNVBAgMCkNhbGlmb3JuaWExETAPBgNVBAcMCFN0YW5mb3JkMQ0wCwYDVQQK
DARCTUlSMQ4wDAYDVQQLDAVDRURBUjEcMBoGA1UEAwwTbWV0YWRhdGFjZW50ZXIu
b3JneDEnMCUGCSqGSIb3DQEJARYYbWV0YWRhdGFjZW50ZXJAZ21haWwuY29tMB4X
DTE4MDYxMTIzNDA1MVoXDTI4MDYwODIzNDA1MVowgY8xCzAJBgNVBAYTAlVTMRMw
EQYDVQQIDApDYWxpZm9ybmlhMQ0wCwYDVQQKDARCTUlSMQ4wDAYDVQQLDAVDRURB
UjEjMCEGA1UEAwwad29ya2VyLm1ldGFkYXRhY2VudGVyLm9yZ3gxJzAlBgkqhkiG
9w0BCQEWGG1ldGFkYXRhY2VudGVyQGdtYWlsLmNvbTCCASIwDQYJKoZIhvcNAQEB
BQADggEPADCCAQoCggEBALZnVAU41+Dq/zzzIlZoIPf8HA5KTlfVszWS3iGaFihr
agcQLySDqk/vt2SdEi6pOaxuiOQYHKGiJsaoPfWVy32XKhHgmo3gJ/wOaZNiFGdo
PShwdH99tyEatRuDzhXJnZpq+3HKjGPnvJYFKa5SPy4aAfi+whJ5ZFYveFx4CpAH
2m4yZLuPdsgnXpXFzo4v/72hnUs9qa2GOEXrgiS5yAg/U8/6VppPwmcr69L4R2xJ
VIlV6nfwu8wtVDV3JmQNfztRUElpP9gs8bvQSt5ZxgPtCGKWqe7zzswuDrbf8SOL
Kwi6xiLpiIdf80tCb/NSC7YsVts14s1rQ4JT16iFLqcCAwEAAaOBnjCBmzAJBgNV
HRMEAjAAMCwGCWCGSAGG+EIBDQQfFh1PcGVuU1NMIEdlbmVyYXRlZCBDZXJ0aWZp
Y2F0ZTAdBgNVHQ4EFgQUu4SIp9fFmfGo2CGbAzZF+tMqrvcwHwYDVR0jBBgwFoAU
+6cj01fmF+HZr/5xLJfh6pRd/NYwIAYDVR0RBBkwF4IVKi5tZXRhZGF0YWNlbnRl
ci5vcmd4MA0GCSqGSIb3DQEBCwUAA4ICAQASTVraVUNH8WIBMV6B+Pqcco22tbgi
jMEa796UDU2hfNynP54tDsnSrMAMz6GJjWV3VeWKSlNZe7Fj0Oc2Y6GEReSjlcnD
YFzrMvrbhO3kbma5t7EoeoiuzauvHnHqtk7e2spW9XLgQwUvtqtkuTe+m+7hdwBN
a/tdtr2jZg9YFDHB8pgQ0AhfIkrBCnME1LCyEyDJ2eBfERxa9DkHqpP0MFMR7kXv
KsIs6eEI/SCpYVAjdMYPl8haD8oopbn83ZljiAxiGFBTcaqnvBFUZ9L8xXi8uQ/e
qhMU5pAnZrUjv80MDx8OjT2Vf3vZcCNx/VwE79L4hph1VYC9KbZ7Co85t2YI296t
VyF/dZUs6YgXgQpijl/W6te47d0w+e0we0ukX34DE2Xlinzm7OxF65FpCnymgE7K
fzbOSbI0qBovhMnPGPQrdEM7LwfUEv8U25slEAGXKzVRKHLqXDffHIt7XEt6U/OD
QgBTwLvJOGoopflBxXDs8ppIh3DPP8aVACpDja5kM0n6ODLTNsTraFId0VFOQMdd
xLA8OpkjKWGRROzObEWNbUc+nwFryuPWNpHjzyirxsQTvE2tFqBLCWNdnl2wctRG
hx8iEXZ7n9lcF3ptBeBm1s2jBdZG860wjH2UIKxqKXnzOEyACSZcxd1sO2s5hq5o
BPR3kq3FKMrEnA==
-----END CERTIFICATE-----
