Certificate:
    Data:
        Version: 3 (0x2)
        Serial Number: 6 (0x6)
    Signature Algorithm: sha256WithRSAEncryption
        Issuer: C=US, ST=California, L=Stanford, O=BMIR, OU=CEDAR, CN=metadatacenter.orgx/emailAddress=metadatacenter@gmail.com
        Validity
            Not Before: Jun 11 23:29:14 2018 GMT
            Not After : Jun  8 23:29:14 2028 GMT
        Subject: C=US, ST=California, O=BMIR, OU=CEDAR, CN=group.metadatacenter.orgx/emailAddress=metadatacenter@gmail.com
        Subject Public Key Info:
            Public Key Algorithm: rsaEncryption
                Public-Key: (2048 bit)
                Modulus:
                    00:c6:d3:f4:f2:be:ef:f5:bb:39:b6:1f:0d:3b:72:
                    52:c7:5f:76:10:43:8e:bb:41:56:7d:be:de:0d:e2:
                    d2:ca:21:84:e4:c9:a7:3b:95:09:ad:5a:cc:17:b5:
                    49:fa:ff:d3:d5:84:60:53:c5:2e:8a:63:dc:ab:5f:
                    0f:83:5d:12:2a:db:b9:8e:55:22:c9:bd:49:a8:16:
                    b4:53:2c:21:cf:0b:62:18:9c:9c:57:8f:dd:aa:55:
                    fc:d6:92:5f:b5:31:c6:18:6a:d7:63:c1:34:ed:34:
                    c8:be:39:69:78:be:18:8b:24:ee:90:74:e7:f4:f5:
                    d3:df:cb:d1:9a:d9:30:ef:51:ad:40:9c:c2:46:ff:
                    8c:25:1e:8b:8a:01:92:fc:01:d5:54:8a:00:07:e5:
                    e2:12:98:72:b9:9b:9b:1e:e0:cc:96:5f:24:5d:86:
                    26:d8:ac:4b:cf:79:cb:90:09:04:e6:f0:02:17:39:
                    b3:d3:a4:83:66:da:1f:e2:23:85:4b:e7:79:d3:3f:
                    ae:4f:70:01:2e:c1:5e:cf:39:1a:5f:11:ad:e3:73:
                    b3:72:05:09:cd:63:5d:28:d1:7f:93:0b:eb:9b:c3:
                    70:52:1b:da:25:4f:29:79:23:2b:7e:fb:cb:7d:b9:
                    5c:f1:cc:46:42:f7:17:a9:16:7c:81:c3:bc:3c:aa:
                    6f:91
                Exponent: 65537 (0x10001)
        X509v3 extensions:
            X509v3 Basic Constraints: 
                CA:FALSE
            Netscape Comment: 
                OpenSSL Generated Certificate
            X509v3 Subject Key Identifier: 
                32:14:A5:D1:11:37:97:48:68:EB:99:38:8D:E5:2B:61:EB:BD:72:B1
            X509v3 Authority Key Identifier: 
                keyid:FB:A7:23:D3:57:E6:17:E1:D9:AF:FE:71:2C:97:E1:EA:94:5D:FC:D6

            X509v3 Subject Alternative Name: 
                DNS:*.metadatacenter.orgx
    Signature Algorithm: sha256WithRSAEncryption
         91:45:aa:eb:63:1a:17:85:ce:54:ff:5e:98:d4:7f:42:32:24:
         80:4b:a1:cd:ec:cf:51:c0:5b:78:c0:d0:49:92:43:91:42:e0:
         f4:41:4a:cc:6a:4b:50:18:72:2e:09:df:2a:d3:4f:47:b0:10:
         fb:29:ef:42:fd:5d:2b:0d:63:5e:82:90:fc:2e:ff:a4:79:8f:
         b2:fa:fe:ee:33:23:df:84:80:17:b2:d5:1e:9e:20:17:aa:60:
         03:39:ff:91:11:96:8b:5d:89:5c:9f:9d:0b:93:b2:56:df:d3:
         fe:f7:cb:d2:b6:fd:0b:d4:d2:1b:cc:04:30:b5:3e:a7:1e:45:
         e8:26:8d:57:3e:24:50:32:47:8f:00:85:52:d2:28:4b:4e:34:
         5b:e9:78:e0:c8:42:2e:ed:b5:8c:6b:e5:98:a5:20:20:c0:21:
         36:94:bb:a5:ef:15:61:c8:a8:c1:b3:f7:3b:8a:d1:2b:98:06:
         33:91:cb:67:51:a9:dd:d7:b6:5e:7b:96:e5:06:41:e7:1a:0a:
         02:d1:4b:b3:6e:fa:e0:e4:e1:74:72:6b:9f:bb:cd:12:5f:59:
         13:01:b9:84:8e:f4:8d:31:9c:cb:8e:27:85:eb:c5:e1:16:76:
         08:86:bc:82:af:f1:30:09:d0:29:8d:d2:94:1b:b0:d3:4a:e3:
         00:f3:ef:20:db:0b:4e:01:e8:fe:89:cc:18:44:d4:f8:4b:ad:
         6b:d7:69:06:2b:fe:1a:30:22:fd:13:78:ee:b8:c9:93:c4:6c:
         ed:80:8f:45:d2:ec:9a:ee:05:29:23:c8:45:e1:8a:c0:ec:0f:
         c7:7c:b5:b2:de:f4:d3:08:cb:67:e8:72:24:c1:79:0b:cf:8e:
         cc:1b:aa:42:9f:d2:81:7f:bf:88:46:c2:2a:92:24:04:1e:76:
         e6:f6:54:48:e6:47:39:60:3c:08:02:79:70:8c:b4:b4:e2:57:
         4c:c7:82:9a:fb:d7:d0:a9:25:d0:eb:48:6e:f9:44:7c:44:1b:
         86:de:ac:0b:9b:57:48:a8:fe:18:dc:4b:13:18:62:f5:63:f9:
         93:b0:bf:c1:9e:00:a6:57:55:a8:df:8c:03:14:6f:ed:67:50:
         b6:34:3f:a4:59:d2:b8:c1:5b:5b:b9:d9:17:13:31:04:f0:2e:
         73:e9:e1:23:ff:94:62:57:45:b2:b3:49:eb:d6:e2:5b:8a:57:
         14:54:a3:c8:b6:63:2c:63:1e:5d:15:2d:e8:22:ce:40:88:d7:
         a1:af:b2:f8:8a:a4:51:ea:2e:0e:d2:54:9d:c9:2a:b1:cb:3a:
         08:9a:ed:bb:0c:2b:af:3a:ec:70:10:ba:e7:8b:6c:4f:23:e2:
         50:eb:24:85:ea:0f:fe:96
-----BEGIN CERTIFICATE-----
MIIFRTCCAy2gAwIBAgIBBjANBgkqhkiG9w0BAQsFADCBmzELMAkGA1UEBhMCVVMx
EzARBgNVBAgMCkNhbGlmb3JuaWExETAPBgNVBAcMCFN0YW5mb3JkMQ0wCwYDVQQK
DARCTUlSMQ4wDAYDVQQLDAVDRURBUjEcMBoGA1UEAwwTbWV0YWRhdGFjZW50ZXIu
b3JneDEnMCUGCSqGSIb3DQEJARYYbWV0YWRhdGFjZW50ZXJAZ21haWwuY29tMB4X
DTE4MDYxMTIzMjkxNFoXDTI4MDYwODIzMjkxNFowgY4xCzAJBgNVBAYTAlVTMRMw
EQYDVQQIDApDYWxpZm9ybmlhMQ0wCwYDVQQKDARCTUlSMQ4wDAYDVQQLDAVDRURB
UjEiMCAGA1UEAwwZZ3JvdXAubWV0YWRhdGFjZW50ZXIub3JneDEnMCUGCSqGSIb3
DQEJARYYbWV0YWRhdGFjZW50ZXJAZ21haWwuY29tMIIBIjANBgkqhkiG9w0BAQEF
AAOCAQ8AMIIBCgKCAQEAxtP08r7v9bs5th8NO3JSx192EEOOu0FWfb7eDeLSyiGE
5MmnO5UJrVrMF7VJ+v/T1YRgU8UuimPcq18Pg10SKtu5jlUiyb1JqBa0Uywhzwti
GJycV4/dqlX81pJftTHGGGrXY8E07TTIvjlpeL4YiyTukHTn9PXT38vRmtkw71Gt
QJzCRv+MJR6LigGS/AHVVIoAB+XiEphyuZubHuDMll8kXYYm2KxLz3nLkAkE5vAC
Fzmz06SDZtof4iOFS+d50z+uT3ABLsFezzkaXxGt43OzcgUJzWNdKNF/kwvrm8Nw
UhvaJU8peSMrfvvLfblc8cxGQvcXqRZ8gcO8PKpvkQIDAQABo4GeMIGbMAkGA1Ud
EwQCMAAwLAYJYIZIAYb4QgENBB8WHU9wZW5TU0wgR2VuZXJhdGVkIENlcnRpZmlj
YXRlMB0GA1UdDgQWBBQyFKXRETeXSGjrmTiN5Sth671ysTAfBgNVHSMEGDAWgBT7
pyPTV+YX4dmv/nEsl+HqlF381jAgBgNVHREEGTAXghUqLm1ldGFkYXRhY2VudGVy
Lm9yZ3gwDQYJKoZIhvcNAQELBQADggIBAJFFqutjGheFzlT/XpjUf0IyJIBLoc3s
z1HAW3jA0EmSQ5FC4PRBSsxqS1AYci4J3yrTT0ewEPsp70L9XSsNY16CkPwu/6R5
j7L6/u4zI9+EgBey1R6eIBeqYAM5/5ERlotdiVyfnQuTslbf0/73y9K2/QvU0hvM
BDC1PqceRegmjVc+JFAyR48AhVLSKEtONFvpeODIQi7ttYxr5ZilICDAITaUu6Xv
FWHIqMGz9zuK0SuYBjORy2dRqd3Xtl57luUGQecaCgLRS7Nu+uDk4XRya5+7zRJf
WRMBuYSO9I0xnMuOJ4XrxeEWdgiGvIKv8TAJ0CmN0pQbsNNK4wDz7yDbC04B6P6J
zBhE1PhLrWvXaQYr/howIv0TeO64yZPEbO2Aj0XS7JruBSkjyEXhisDsD8d8tbLe
9NMIy2fociTBeQvPjswbqkKf0oF/v4hGwiqSJAQedub2VEjmRzlgPAgCeXCMtLTi
V0zHgpr719CpJdDrSG75RHxEG4berAubV0io/hjcSxMYYvVj+ZOwv8GeAKZXVajf
jAMUb+1nULY0P6RZ0rjBW1u52RcTMQTwLnPp4SP/lGJXRbKzSevW4luKVxRUo8i2
YyxjHl0VLegizkCI16GvsviKpFHqLg7SVJ3JKrHLOgia7bsMK6867HAQuueLbE8j
4lDrJIXqD/6W
-----END CERTIFICATE-----
