Certificate:
    Data:
        Version: 3 (0x2)
        Serial Number: 4 (0x4)
        Signature Algorithm: sha256WithRSAEncryption
        Issuer: C=US, ST=CA, L=Stanford, O=BMIR, OU=CEDAR, CN=metadatacenter.orgx/emailAddress=metadatacenter@gmail.com
        Validity
            Not Before: Oct  6 00:16:30 2020 GMT
            Not After : Jan  8 00:16:30 2023 GMT
        Subject: C=US, ST=CA, O=BMIR, OU=CEDAR, CN=group.metadatacenter.orgx/emailAddress=metadatacenter@gmail.com
        Subject Public Key Info:
            Public Key Algorithm: rsaEncryption
                RSA Public-Key: (2048 bit)
                Modulus:
                    00:ad:c3:f5:92:73:97:10:3b:1d:54:7c:01:38:72:
                    fa:e1:b4:53:26:41:85:e2:80:70:59:c8:ad:bc:ee:
                    10:9d:3a:37:52:1d:8a:ce:e1:ad:c5:54:ae:40:df:
                    62:cb:97:08:09:10:c3:4f:16:72:ca:b0:3c:75:fa:
                    b6:ae:53:e6:73:10:7f:0d:29:02:07:95:57:82:98:
                    9d:28:6a:23:e5:e7:9a:7b:45:ac:cb:58:8c:39:d7:
                    9a:45:2e:59:6e:a1:e8:e0:5b:32:73:ca:3d:cf:72:
                    7c:4b:e6:d9:d1:a2:a6:88:32:6a:e7:95:29:75:fe:
                    f6:4f:af:5e:c3:de:f8:67:b3:f4:da:2c:2f:d3:23:
                    c4:63:27:f1:e1:99:ff:71:08:f2:ba:cb:5e:cf:b0:
                    62:1e:96:aa:ff:d8:55:2d:21:7a:49:da:d8:5a:a8:
                    62:e3:c0:bc:85:23:9e:c5:c3:3c:8e:98:f9:0d:32:
                    d3:22:ac:dd:fa:20:d1:02:9f:f3:37:e7:91:5b:18:
                    25:da:ba:48:f7:a8:aa:cf:8f:5e:92:3b:72:17:0f:
                    5b:ea:e3:e8:df:73:44:3b:da:07:42:49:36:9a:f6:
                    c2:0c:c9:0a:db:ee:ad:3a:11:5e:78:4d:88:35:82:
                    c9:4f:02:2f:4f:80:5d:86:81:55:bc:c5:0e:25:e2:
                    98:b9
                Exponent: 65537 (0x10001)
        X509v3 extensions:
            X509v3 Basic Constraints: 
                CA:FALSE
            Netscape Comment: 
                OpenSSL Generated Certificate
            X509v3 Subject Key Identifier: 
                C2:04:BC:C1:A8:CC:71:80:C3:C9:85:31:EA:2B:DF:69:BE:52:A2:7A
            X509v3 Authority Key Identifier: 
                keyid:77:A3:31:7A:29:2E:2A:3D:AA:26:93:C7:E1:8E:09:2E:30:88:0F:96

    Signature Algorithm: sha256WithRSAEncryption
         0e:77:71:b4:87:f3:ad:ea:68:32:0b:58:8f:b4:8f:ee:69:c0:
         d6:d0:2a:09:46:81:52:03:31:94:bb:95:0e:15:c5:76:69:e6:
         31:35:5b:b5:77:db:02:32:44:89:c6:c5:92:81:41:c9:15:83:
         64:ac:81:79:6a:24:ae:14:d8:fd:7c:b2:f7:05:09:10:b2:09:
         47:43:8d:f2:73:b0:d2:d9:6f:0f:e3:3c:49:21:cc:77:5e:11:
         fe:11:9f:7b:77:af:a6:d3:12:16:d0:ad:9d:70:68:f2:61:4f:
         e8:1b:33:33:5f:b4:ca:18:48:b5:7b:0f:32:c2:56:fd:68:93:
         35:3e:4f:42:95:0a:53:b7:1d:89:da:08:a3:4d:12:22:62:7c:
         77:a4:72:89:49:a7:e4:d6:89:d5:3d:6d:10:e1:b8:5f:92:03:
         8a:bc:61:c8:50:dc:45:b5:3a:a3:7b:b5:4d:88:8c:1d:49:dc:
         00:33:70:75:c6:79:1c:ac:24:1f:ab:7d:1f:fe:f5:01:2b:f5:
         5a:41:d8:b7:d2:0e:b2:ed:43:60:1e:41:96:86:9a:d6:28:21:
         66:4b:d6:8c:d6:d4:b2:18:75:24:6d:8a:d1:03:11:7a:2d:07:
         15:f8:a8:61:20:12:62:2b:50:83:20:b2:33:cd:df:35:17:58:
         37:7e:4a:b9:24:0e:ff:4f:7e:cd:ae:a0:b6:0e:5f:20:05:c5:
         4e:22:0a:0f:a1:81:4f:87:e3:4a:3a:d3:39:5e:33:5d:15:ce:
         46:fa:5a:ed:66:ed:c0:d9:10:58:b9:ca:bf:1d:0a:63:0f:52:
         1f:c6:c5:d0:6d:f4:5c:2e:53:c4:d6:67:c4:89:2c:47:bc:37:
         24:94:6e:5c:08:93:23:76:c9:c5:a7:e6:29:27:35:2b:d0:0d:
         bf:69:41:e5:d9:2d:fe:0c:7f:af:a1:12:76:9e:e5:34:fc:09:
         c2:83:5b:e3:61:7d:7f:9b:0e:cc:32:6b:ac:21:f0:19:9e:d4:
         d8:df:79:a3:17:cf:34:86:3e:06:3a:69:03:3e:98:92:53:c7:
         0c:21:d3:1f:fb:1d:fc:88:4d:65:dc:49:34:ad:e7:2c:cf:40:
         16:65:83:9e:f5:6f:2c:f6:de:ab:fe:c9:3d:20:b0:3c:24:43:
         28:ce:a2:3c:58:7b:4e:ee:8b:b8:99:51:37:93:f9:8a:94:59:
         88:dd:a5:22:f5:df:f6:66:30:d5:4b:b6:95:00:0a:70:4c:ef:
         27:26:b4:08:50:76:46:2e:76:11:05:95:a9:75:a7:e6:45:39:
         f6:96:cc:f8:ed:72:5a:1a:84:1e:9c:e3:b2:cc:52:74:3e:54:
         94:e8:b2:99:58:a4:20:a3
-----BEGIN CERTIFICATE-----
MIIFETCCAvmgAwIBAgIBBDANBgkqhkiG9w0BAQsFADCBkzELMAkGA1UEBhMCVVMx
CzAJBgNVBAgMAkNBMREwDwYDVQQHDAhTdGFuZm9yZDENMAsGA1UECgwEQk1JUjEO
MAwGA1UECwwFQ0VEQVIxHDAaBgNVBAMME21ldGFkYXRhY2VudGVyLm9yZ3gxJzAl
BgkqhkiG9w0BCQEWGG1ldGFkYXRhY2VudGVyQGdtYWlsLmNvbTAeFw0yMDEwMDYw
MDE2MzBaFw0yMzAxMDgwMDE2MzBaMIGGMQswCQYDVQQGEwJVUzELMAkGA1UECAwC
Q0ExDTALBgNVBAoMBEJNSVIxDjAMBgNVBAsMBUNFREFSMSIwIAYDVQQDDBlncm91
cC5tZXRhZGF0YWNlbnRlci5vcmd4MScwJQYJKoZIhvcNAQkBFhhtZXRhZGF0YWNl
bnRlckBnbWFpbC5jb20wggEiMA0GCSqGSIb3DQEBAQUAA4IBDwAwggEKAoIBAQCt
w/WSc5cQOx1UfAE4cvrhtFMmQYXigHBZyK287hCdOjdSHYrO4a3FVK5A32LLlwgJ
EMNPFnLKsDx1+rauU+ZzEH8NKQIHlVeCmJ0oaiPl55p7RazLWIw515pFLlluoejg
WzJzyj3PcnxL5tnRoqaIMmrnlSl1/vZPr17D3vhns/TaLC/TI8RjJ/Hhmf9xCPK6
y17PsGIelqr/2FUtIXpJ2thaqGLjwLyFI57FwzyOmPkNMtMirN36INECn/M355Fb
GCXaukj3qKrPj16SO3IXD1vq4+jfc0Q72gdCSTaa9sIMyQrb7q06EV54TYg1gslP
Ai9PgF2GgVW8xQ4l4pi5AgMBAAGjezB5MAkGA1UdEwQCMAAwLAYJYIZIAYb4QgEN
BB8WHU9wZW5TU0wgR2VuZXJhdGVkIENlcnRpZmljYXRlMB0GA1UdDgQWBBTCBLzB
qMxxgMPJhTHqK99pvlKiejAfBgNVHSMEGDAWgBR3ozF6KS4qPaomk8fhjgkuMIgP
ljANBgkqhkiG9w0BAQsFAAOCAgEADndxtIfzrepoMgtYj7SP7mnA1tAqCUaBUgMx
lLuVDhXFdmnmMTVbtXfbAjJEicbFkoFByRWDZKyBeWokrhTY/Xyy9wUJELIJR0ON
8nOw0tlvD+M8SSHMd14R/hGfe3evptMSFtCtnXBo8mFP6BszM1+0yhhItXsPMsJW
/WiTNT5PQpUKU7cdidoIo00SImJ8d6RyiUmn5NaJ1T1tEOG4X5IDirxhyFDcRbU6
o3u1TYiMHUncADNwdcZ5HKwkH6t9H/71ASv1WkHYt9IOsu1DYB5Bloaa1ighZkvW
jNbUshh1JG2K0QMRei0HFfioYSASYitQgyCyM83fNRdYN35KuSQO/09+za6gtg5f
IAXFTiIKD6GBT4fjSjrTOV4zXRXORvpa7WbtwNkQWLnKvx0KYw9SH8bF0G30XC5T
xNZnxIksR7w3JJRuXAiTI3bJxafmKSc1K9ANv2lB5dkt/gx/r6ESdp7lNPwJwoNb
42F9f5sOzDJrrCHwGZ7U2N95oxfPNIY+BjppAz6YklPHDCHTH/sd/IhNZdxJNK3n
LM9AFmWDnvVvLPbeq/7JPSCwPCRDKM6iPFh7Tu6LuJlRN5P5ipRZiN2lIvXf9mYw
1Uu2lQAKcEzvJya0CFB2Ri52EQWVqXWn5kU59pbM+O1yWhqEHpzjssxSdD5UlOiy
mVikIKM=
-----END CERTIFICATE-----
