Certificate:
    Data:
        Version: 3 (0x2)
        Serial Number: 10 (0xa)
    Signature Algorithm: sha256WithRSAEncryption
        Issuer: C=US, ST=California, L=Stanford, O=BMIR, OU=CEDAR, CN=metadatacenter.orgx/emailAddress=metadatacenter@gmail.com
        Validity
            Not Before: Jun 11 23:34:18 2018 GMT
            Not After : Jun  8 23:34:18 2028 GMT
        Subject: C=US, ST=California, O=BMIR, OU=CEDAR, CN=schema.metadatacenter.orgx/emailAddress=metadatacenter@gmail.com
        Subject Public Key Info:
            Public Key Algorithm: rsaEncryption
                Public-Key: (2048 bit)
                Modulus:
                    00:cd:62:3a:42:35:58:19:78:0f:d3:4f:51:24:a4:
                    d9:14:72:85:97:c7:4b:86:32:e3:78:5f:2d:37:1a:
                    aa:c4:8c:6a:c7:68:c9:a5:08:6e:3f:de:41:e4:04:
                    b6:96:a2:e8:a2:41:dc:2f:dc:e0:f4:3a:ac:da:73:
                    56:52:1c:24:a8:2e:a9:ce:c8:79:f3:ca:f1:11:bd:
                    e1:84:36:0a:a7:d2:2e:6e:d1:70:59:dc:a4:d2:58:
                    77:57:54:cc:fe:03:81:70:b7:0e:ca:d0:35:4f:6e:
                    6a:ab:d4:28:ad:d8:59:5c:8b:58:8b:93:48:d3:a4:
                    b5:28:92:c4:19:d4:d5:25:d1:02:cc:14:df:ed:2a:
                    05:63:1e:f4:49:ec:94:91:1b:65:af:94:12:25:de:
                    89:4b:f7:d6:62:ed:f0:a6:fd:37:4e:23:ad:2c:ac:
                    94:fb:5d:be:80:da:4f:0f:c7:bd:43:4a:31:e8:f7:
                    54:45:8b:99:74:68:57:dd:55:c4:ce:10:3b:69:1f:
                    30:c1:1a:fb:af:8a:6e:09:21:49:31:72:7c:e5:19:
                    fa:1e:3a:69:ea:d5:cd:fc:b8:33:a5:9a:70:d0:1b:
                    91:10:5c:b2:b3:cf:de:03:71:17:e8:a7:77:b2:74:
                    0d:f9:63:85:cb:ec:57:e5:51:b7:90:df:c6:66:75:
                    37:0d
                Exponent: 65537 (0x10001)
        X509v3 extensions:
            X509v3 Basic Constraints: 
                CA:FALSE
            Netscape Comment: 
                OpenSSL Generated Certificate
            X509v3 Subject Key Identifier: 
                0F:03:4F:E6:3C:ED:0E:84:D0:0A:A7:EF:CB:51:E5:8B:B2:B5:22:79
            X509v3 Authority Key Identifier: 
                keyid:FB:A7:23:D3:57:E6:17:E1:D9:AF:FE:71:2C:97:E1:EA:94:5D:FC:D6

            X509v3 Subject Alternative Name: 
                DNS:*.metadatacenter.orgx
    Signature Algorithm: sha256WithRSAEncryption
         bb:fa:f6:dc:e2:a8:43:8c:b1:14:ad:99:9b:f1:88:c2:06:2c:
         d0:51:7f:79:b0:2c:16:b7:36:5b:49:50:94:95:78:7e:f4:76:
         03:2e:61:d7:1c:9d:25:87:35:14:0f:0f:c9:31:71:ba:10:7c:
         90:71:c4:18:59:70:2c:9a:cf:bc:57:01:90:93:44:f8:b3:21:
         81:0d:c6:79:ae:f2:b7:f0:0f:35:3c:d4:10:03:75:18:74:54:
         38:ce:a5:91:88:4d:1b:31:0b:f9:2d:d8:78:0a:47:23:a8:4b:
         3b:39:9e:96:9c:7d:77:2c:93:31:89:57:bb:26:45:3c:6e:af:
         c6:4e:bf:ea:e5:e2:3a:16:0b:08:87:e8:2c:b4:95:cc:43:49:
         b1:cf:e9:85:08:58:e2:26:05:91:81:41:1d:15:2f:ff:8e:2a:
         f7:e0:21:f7:ee:83:02:59:c9:87:31:cf:09:44:20:9e:ed:78:
         c4:95:ce:1d:fb:a6:02:ec:12:75:36:eb:f1:2f:08:52:54:84:
         68:6f:b3:fc:21:ce:88:1f:01:b1:a5:35:9e:e0:c7:3e:e9:6a:
         2c:31:b9:98:ce:96:bf:03:f9:3f:a2:9d:5b:f7:a5:8f:98:58:
         f6:74:91:10:95:41:1b:24:37:a0:f4:6a:fc:c0:c5:ab:2c:08:
         b2:7e:a1:58:05:20:52:9c:b2:fb:e9:f3:f2:ad:63:5f:14:cd:
         c0:1e:27:90:8c:c2:2b:ba:d9:6a:5e:9d:41:3b:be:60:4f:76:
         11:78:02:4d:95:71:1c:dd:18:59:54:1c:1f:79:b2:58:65:71:
         d7:32:5b:40:a9:af:93:0e:91:6c:c6:1f:74:45:16:48:82:f6:
         18:0e:10:60:e8:c5:a4:d5:b1:af:c0:f2:d0:46:4b:31:84:67:
         9e:76:63:4c:f1:04:e0:20:b6:dd:bc:fc:c2:33:57:f6:67:f5:
         6c:49:f1:98:89:3c:8e:26:cf:39:67:07:22:b5:ad:66:07:5e:
         eb:f6:93:e4:73:32:0d:14:e4:6a:60:45:8a:24:87:54:c6:8c:
         22:61:ec:95:07:e0:03:72:02:33:d9:3e:c0:e4:bd:92:a1:ea:
         ed:7f:77:08:8c:b6:dc:24:8f:e9:a6:a2:9d:5a:1c:e9:50:8c:
         9d:d5:dd:f6:22:59:03:54:aa:00:fa:d7:b2:2c:99:17:aa:a8:
         6d:00:ad:dc:bf:92:7d:4f:47:8d:b2:91:7c:c1:33:b3:e3:25:
         0c:90:88:cf:02:56:31:14:46:30:96:29:47:65:4a:d1:c6:0f:
         7f:1d:ae:45:50:4c:84:7e:30:1b:64:fb:31:60:c8:46:49:db:
         d5:9d:7f:00:c5:8e:f6:4e
-----BEGIN CERTIFICATE-----
MIIFRjCCAy6gAwIBAgIBCjANBgkqhkiG9w0BAQsFADCBmzELMAkGA1UEBhMCVVMx
EzARBgNVBAgMCkNhbGlmb3JuaWExETAPBgNVBAcMCFN0YW5mb3JkMQ0wCwYDVQQK
DARCTUlSMQ4wDAYDVQQLDAVDRURBUjEcMBoGA1UEAwwTbWV0YWRhdGFjZW50ZXIu
b3JneDEnMCUGCSqGSIb3DQEJARYYbWV0YWRhdGFjZW50ZXJAZ21haWwuY29tMB4X
DTE4MDYxMTIzMzQxOFoXDTI4MDYwODIzMzQxOFowgY8xCzAJBgNVBAYTAlVTMRMw
EQYDVQQIDApDYWxpZm9ybmlhMQ0wCwYDVQQKDARCTUlSMQ4wDAYDVQQLDAVDRURB
UjEjMCEGA1UEAwwac2NoZW1hLm1ldGFkYXRhY2VudGVyLm9yZ3gxJzAlBgkqhkiG
9w0BCQEWGG1ldGFkYXRhY2VudGVyQGdtYWlsLmNvbTCCASIwDQYJKoZIhvcNAQEB
BQADggEPADCCAQoCggEBAM1iOkI1WBl4D9NPUSSk2RRyhZfHS4Yy43hfLTcaqsSM
asdoyaUIbj/eQeQEtpai6KJB3C/c4PQ6rNpzVlIcJKguqc7IefPK8RG94YQ2CqfS
Lm7RcFncpNJYd1dUzP4DgXC3DsrQNU9uaqvUKK3YWVyLWIuTSNOktSiSxBnU1SXR
AswU3+0qBWMe9EnslJEbZa+UEiXeiUv31mLt8Kb9N04jrSyslPtdvoDaTw/HvUNK
Mej3VEWLmXRoV91VxM4QO2kfMMEa+6+KbgkhSTFyfOUZ+h46aerVzfy4M6WacNAb
kRBcsrPP3gNxF+ind7J0DfljhcvsV+VRt5DfxmZ1Nw0CAwEAAaOBnjCBmzAJBgNV
HRMEAjAAMCwGCWCGSAGG+EIBDQQfFh1PcGVuU1NMIEdlbmVyYXRlZCBDZXJ0aWZp
Y2F0ZTAdBgNVHQ4EFgQUDwNP5jztDoTQCqfvy1Hli7K1InkwHwYDVR0jBBgwFoAU
+6cj01fmF+HZr/5xLJfh6pRd/NYwIAYDVR0RBBkwF4IVKi5tZXRhZGF0YWNlbnRl
ci5vcmd4MA0GCSqGSIb3DQEBCwUAA4ICAQC7+vbc4qhDjLEUrZmb8YjCBizQUX95
sCwWtzZbSVCUlXh+9HYDLmHXHJ0lhzUUDw/JMXG6EHyQccQYWXAsms+8VwGQk0T4
syGBDcZ5rvK38A81PNQQA3UYdFQ4zqWRiE0bMQv5Ldh4CkcjqEs7OZ6WnH13LJMx
iVe7JkU8bq/GTr/q5eI6FgsIh+gstJXMQ0mxz+mFCFjiJgWRgUEdFS//jir34CH3
7oMCWcmHMc8JRCCe7XjElc4d+6YC7BJ1NuvxLwhSVIRob7P8Ic6IHwGxpTWe4Mc+
6WosMbmYzpa/A/k/op1b96WPmFj2dJEQlUEbJDeg9Gr8wMWrLAiyfqFYBSBSnLL7
6fPyrWNfFM3AHieQjMIrutlqXp1BO75gT3YReAJNlXEc3RhZVBwfebJYZXHXMltA
qa+TDpFsxh90RRZIgvYYDhBg6MWk1bGvwPLQRksxhGeedmNM8QTgILbdvPzCM1f2
Z/VsSfGYiTyOJs85Zwcita1mB17r9pPkczINFORqYEWKJIdUxowiYeyVB+ADcgIz
2T7A5L2Soertf3cIjLbcJI/ppqKdWhzpUIyd1d32IlkDVKoA+teyLJkXqqhtAK3c
v5J9T0eNspF8wTOz4yUMkIjPAlYxFEYwlilHZUrRxg9/Ha5FUEyEfjAbZPsxYMhG
SdvVnX8AxY72Tg==
-----END CERTIFICATE-----
