Certificate:
    Data:
        Version: 3 (0x2)
        Serial Number: 14 (0xe)
    Signature Algorithm: sha256WithRSAEncryption
        Issuer: C=US, ST=California, L=Stanford, O=BMIR, OU=CEDAR, CN=metadatacenter.orgx/emailAddress=metadatacenter@gmail.com
        Validity
            Not Before: Jun 11 23:38:18 2018 GMT
            Not After : Jun  8 23:38:18 2028 GMT
        Subject: C=US, ST=California, O=BMIR, OU=CEDAR, CN=user.metadatacenter.orgx/emailAddress=metadatacenter@gmail.com
        Subject Public Key Info:
            Public Key Algorithm: rsaEncryption
                Public-Key: (2048 bit)
                Modulus:
                    00:b3:42:c8:2b:55:7b:02:78:ae:b4:83:44:a7:d2:
                    ac:bf:7e:99:b5:22:56:f9:98:0f:3e:45:f4:da:81:
                    2f:00:21:67:17:4f:ea:d7:f4:b5:be:a9:69:ae:c3:
                    7a:b0:28:bf:31:11:3c:6f:72:86:32:c3:ff:b4:22:
                    a2:10:4e:ec:0c:f5:c6:da:cb:51:e4:36:66:06:1f:
                    ea:ce:71:53:28:6f:72:38:60:00:3b:d2:60:70:3b:
                    b4:f2:a1:1c:e7:54:0c:c1:f4:09:b3:e1:c1:d3:59:
                    ee:58:e2:71:a1:55:6d:60:dc:02:01:c0:9e:b6:2d:
                    e9:e1:35:89:23:de:1c:7d:1b:99:7f:57:73:86:2c:
                    cf:bd:ab:d0:20:02:e0:ee:b7:61:b7:4e:31:f7:52:
                    8f:dc:33:56:a4:88:1c:d5:89:24:0c:de:13:b0:d9:
                    8f:63:58:0a:04:c5:fb:3b:e4:bd:b9:f7:e9:1a:56:
                    7f:d3:1f:ae:7f:95:f8:ea:46:eb:11:b6:b8:2c:79:
                    cc:48:b5:98:d2:38:1d:10:5b:5c:34:29:c1:87:13:
                    66:ec:61:94:8a:fb:48:61:18:6e:ff:cd:c6:2b:90:
                    cc:72:d8:62:38:bd:fd:84:d5:8c:89:44:20:7d:b3:
                    f4:82:ae:ad:86:19:33:f3:fa:3b:02:28:8a:6c:be:
                    80:65
                Exponent: 65537 (0x10001)
        X509v3 extensions:
            X509v3 Basic Constraints: 
                CA:FALSE
            Netscape Comment: 
                OpenSSL Generated Certificate
            X509v3 Subject Key Identifier: 
                48:8E:B2:8B:FC:52:D3:1C:E7:0C:13:A3:C1:9E:26:15:2E:9B:BC:95
            X509v3 Authority Key Identifier: 
                keyid:FB:A7:23:D3:57:E6:17:E1:D9:AF:FE:71:2C:97:E1:EA:94:5D:FC:D6

            X509v3 Subject Alternative Name: 
                DNS:*.metadatacenter.orgx
    Signature Algorithm: sha256WithRSAEncryption
         66:19:68:3d:ad:4e:3f:05:a4:31:e3:c3:65:90:b0:52:bd:cf:
         e3:fe:72:cf:82:70:6c:da:2a:73:a3:e4:53:3b:8c:08:fa:f5:
         ba:3b:87:9d:43:6e:3a:83:35:ec:13:f8:4c:03:09:4f:3d:0d:
         de:3d:be:74:5e:b1:b8:93:a0:7b:0c:2c:17:5f:0e:2c:e0:55:
         26:a8:4d:8f:7c:d4:c7:f9:6e:7b:e3:f6:3e:42:64:8c:ad:1d:
         f5:81:6c:23:51:4c:59:5b:a0:9d:bc:46:66:7c:96:1c:1d:02:
         cb:2a:d7:ad:6f:56:a6:af:96:1e:eb:d9:83:9b:61:86:47:13:
         cb:a6:4f:48:5f:39:2a:7d:a9:ea:3a:c2:4d:25:54:d5:bf:4f:
         4d:a4:fc:42:88:5e:3e:7a:3a:fb:56:3d:7f:59:12:df:1e:9b:
         ca:6e:09:b0:5c:ce:b0:04:1e:52:3c:7a:5d:a3:bf:3e:f5:4d:
         5f:85:c7:bf:a5:ff:03:1f:aa:3f:08:dc:c5:8f:c2:08:18:d4:
         76:c8:54:c4:c3:27:1a:8a:6d:fe:22:90:d9:3f:59:2c:4b:b5:
         b0:61:a1:cd:a5:62:08:65:cb:10:4b:25:46:df:66:a7:ef:09:
         f7:25:bc:a9:7b:9b:2b:5d:69:07:00:60:bd:2e:19:bd:c1:43:
         f3:df:95:2c:bd:1b:d5:b8:51:0b:29:4e:fa:4d:5a:8a:39:3b:
         e2:d9:55:b3:bd:35:2c:8e:f6:09:f3:24:84:76:94:24:62:ff:
         17:11:4b:3d:33:fe:df:2c:44:1e:d9:0f:ca:2d:fe:90:e7:c8:
         49:c6:4d:1c:17:3a:70:8e:1a:8e:05:68:00:6b:1f:c7:a6:62:
         cd:cb:88:ec:df:8b:f6:73:83:b2:67:be:d2:8a:54:95:22:c8:
         b7:5a:d0:08:ce:74:ce:78:d7:d9:76:48:7a:b3:e7:55:94:35:
         07:c3:07:5b:45:fb:2a:d2:a9:cf:a0:ad:d3:58:f4:ab:ba:6d:
         6f:2d:0a:77:69:a9:64:b7:0d:34:97:61:23:42:8c:dc:d0:18:
         64:85:d7:3f:96:23:e0:8c:2e:97:0f:6b:e5:dd:d1:63:93:78:
         6c:7f:7a:6d:f6:95:84:82:fe:f6:08:39:31:8b:b8:09:e8:0f:
         69:37:e3:74:fb:ae:c6:eb:3e:ab:64:c3:2c:ad:d4:70:52:05:
         91:77:31:fd:38:cc:2a:86:79:6d:c7:42:15:16:3c:7c:74:b3:
         b3:2a:79:66:49:99:9b:58:96:82:8b:85:0c:71:2f:06:63:eb:
         3c:5d:7d:47:1e:e6:ef:be:0c:d2:d7:fb:27:c6:78:c7:98:8c:
         01:be:30:7c:a9:37:bb:c6
-----BEGIN CERTIFICATE-----
MIIFRDCCAyygAwIBAgIBDjANBgkqhkiG9w0BAQsFADCBmzELMAkGA1UEBhMCVVMx
EzARBgNVBAgMCkNhbGlmb3JuaWExETAPBgNVBAcMCFN0YW5mb3JkMQ0wCwYDVQQK
DARCTUlSMQ4wDAYDVQQLDAVDRURBUjEcMBoGA1UEAwwTbWV0YWRhdGFjZW50ZXIu
b3JneDEnMCUGCSqGSIb3DQEJARYYbWV0YWRhdGFjZW50ZXJAZ21haWwuY29tMB4X
DTE4MDYxMTIzMzgxOFoXDTI4MDYwODIzMzgxOFowgY0xCzAJBgNVBAYTAlVTMRMw
EQYDVQQIDApDYWxpZm9ybmlhMQ0wCwYDVQQKDARCTUlSMQ4wDAYDVQQLDAVDRURB
UjEhMB8GA1UEAwwYdXNlci5tZXRhZGF0YWNlbnRlci5vcmd4MScwJQYJKoZIhvcN
AQkBFhhtZXRhZGF0YWNlbnRlckBnbWFpbC5jb20wggEiMA0GCSqGSIb3DQEBAQUA
A4IBDwAwggEKAoIBAQCzQsgrVXsCeK60g0Sn0qy/fpm1Ilb5mA8+RfTagS8AIWcX
T+rX9LW+qWmuw3qwKL8xETxvcoYyw/+0IqIQTuwM9cbay1HkNmYGH+rOcVMob3I4
YAA70mBwO7TyoRznVAzB9Amz4cHTWe5Y4nGhVW1g3AIBwJ62LenhNYkj3hx9G5l/
V3OGLM+9q9AgAuDut2G3TjH3Uo/cM1akiBzViSQM3hOw2Y9jWAoExfs75L259+ka
Vn/TH65/lfjqRusRtrgsecxItZjSOB0QW1w0KcGHE2bsYZSK+0hhGG7/zcYrkMxy
2GI4vf2E1YyJRCB9s/SCrq2GGTPz+jsCKIpsvoBlAgMBAAGjgZ4wgZswCQYDVR0T
BAIwADAsBglghkgBhvhCAQ0EHxYdT3BlblNTTCBHZW5lcmF0ZWQgQ2VydGlmaWNh
dGUwHQYDVR0OBBYEFEiOsov8UtMc5wwTo8GeJhUum7yVMB8GA1UdIwQYMBaAFPun
I9NX5hfh2a/+cSyX4eqUXfzWMCAGA1UdEQQZMBeCFSoubWV0YWRhdGFjZW50ZXIu
b3JneDANBgkqhkiG9w0BAQsFAAOCAgEAZhloPa1OPwWkMePDZZCwUr3P4/5yz4Jw
bNoqc6PkUzuMCPr1ujuHnUNuOoM17BP4TAMJTz0N3j2+dF6xuJOgewwsF18OLOBV
JqhNj3zUx/lue+P2PkJkjK0d9YFsI1FMWVugnbxGZnyWHB0CyyrXrW9Wpq+WHuvZ
g5thhkcTy6ZPSF85Kn2p6jrCTSVU1b9PTaT8QohePno6+1Y9f1kS3x6bym4JsFzO
sAQeUjx6XaO/PvVNX4XHv6X/Ax+qPwjcxY/CCBjUdshUxMMnGopt/iKQ2T9ZLEu1
sGGhzaViCGXLEEslRt9mp+8J9yW8qXubK11pBwBgvS4ZvcFD89+VLL0b1bhRCylO
+k1aijk74tlVs701LI72CfMkhHaUJGL/FxFLPTP+3yxEHtkPyi3+kOfIScZNHBc6
cI4ajgVoAGsfx6ZizcuI7N+L9nODsme+0opUlSLIt1rQCM50znjX2XZIerPnVZQ1
B8MHW0X7KtKpz6Ct01j0q7ptby0Kd2mpZLcNNJdhI0KM3NAYZIXXP5Yj4Iwulw9r
5d3RY5N4bH96bfaVhIL+9gg5MYu4CegPaTfjdPuuxus+q2TDLK3UcFIFkXcx/TjM
KoZ5bcdCFRY8fHSzsyp5ZkmZm1iWgouFDHEvBmPrPF19Rx7m774M0tf7J8Z4x5iM
Ab4wfKk3u8Y=
-----END CERTIFICATE-----
