Certificate:
    Data:
        Version: 3 (0x2)
        Serial Number: 15 (0xf)
        Signature Algorithm: sha256WithRSAEncryption
        Issuer: C=US, ST=CA, L=Stanford, O=BMIR, OU=CEDAR, CN=metadatacenter.orgx/emailAddress=metadatacenter@gmail.com
        Validity
            Not Before: Oct  6 00:39:43 2020 GMT
            Not After : Jan  8 00:39:43 2023 GMT
        Subject: C=US, ST=CA, O=BMIR, OU=CEDAR, CN=user.metadatacenter.orgx/emailAddress=metadatacenter@gmail.com
        Subject Public Key Info:
            Public Key Algorithm: rsaEncryption
                RSA Public-Key: (2048 bit)
                Modulus:
                    00:e6:7a:41:ec:fd:9a:dc:d2:48:ef:0b:1c:03:91:
                    b4:b7:b1:37:62:2a:73:d5:74:4c:0c:87:49:47:9a:
                    59:2d:1a:2b:e3:e7:ae:3e:0c:c1:2f:74:45:27:02:
                    01:ff:c7:16:03:a7:6c:4c:c6:f7:93:00:94:32:6f:
                    49:b9:60:f2:09:21:6a:a7:84:bb:a9:7b:c2:f0:90:
                    f6:a6:33:b9:70:b4:74:f7:3e:a2:01:06:52:da:62:
                    9b:74:cb:42:13:88:05:2d:7d:a3:42:cb:7c:8b:45:
                    5c:1f:9e:f8:ad:40:8e:01:a4:6b:d4:f9:68:db:c1:
                    62:cb:ca:76:85:fd:da:80:41:5c:06:3c:c6:f5:c5:
                    93:05:c0:a2:55:45:74:43:d1:78:6b:8c:71:24:39:
                    40:26:26:43:b3:d5:97:02:ac:0c:51:ac:b4:8b:f3:
                    24:92:1a:5f:ae:82:79:08:2b:22:98:77:1e:5f:3f:
                    32:0d:8a:3d:26:09:c7:33:3e:ce:7b:2d:b2:90:64:
                    05:a7:f7:12:24:a3:b4:4d:5b:96:80:9a:76:4f:1d:
                    8c:a2:6e:05:4e:2e:0b:5d:66:bf:e1:fb:e3:b4:1a:
                    15:45:80:89:04:4b:01:5a:6b:a3:14:20:c9:2e:6d:
                    f0:16:e9:c2:93:64:58:1f:ac:50:72:ad:7d:dc:3b:
                    5f:4d
                Exponent: 65537 (0x10001)
        X509v3 extensions:
            X509v3 Basic Constraints: 
                CA:FALSE
            Netscape Comment: 
                OpenSSL Generated Certificate
            X509v3 Subject Key Identifier: 
                35:2D:BE:4C:86:72:EC:D8:0E:59:AC:9F:EC:07:FC:4C:59:B1:C5:B9
            X509v3 Authority Key Identifier: 
                keyid:77:A3:31:7A:29:2E:2A:3D:AA:26:93:C7:E1:8E:09:2E:30:88:0F:96

    Signature Algorithm: sha256WithRSAEncryption
         2e:ff:d0:20:00:c3:c1:94:72:98:33:27:b3:74:f6:1f:07:bc:
         76:5d:06:77:65:4c:50:6f:f6:b0:55:18:61:ad:4f:5d:13:3d:
         b9:47:24:37:f2:59:04:c8:02:27:0c:72:76:c9:be:6a:91:3c:
         ee:84:50:29:06:33:df:df:3b:32:ba:b4:e0:e0:47:ce:d4:11:
         5f:5a:5f:26:84:42:29:4a:98:45:86:e4:58:0c:c0:f9:af:c9:
         b5:f2:e9:1b:b0:7a:2d:df:62:db:2f:59:33:3d:71:bf:0e:47:
         db:76:7b:8a:ab:4d:52:4c:4f:52:57:c4:f8:de:1e:70:e7:ac:
         1f:e7:8e:2d:ed:e3:a1:ab:71:01:28:30:60:9f:78:f5:17:c9:
         be:43:50:3f:3b:33:f7:b2:44:98:92:24:2b:eb:e9:d1:c4:af:
         7c:6a:d2:b8:f1:3e:3f:51:88:57:bb:3e:f3:49:b6:a4:ec:5a:
         ef:34:70:67:4d:78:de:39:79:65:c3:d8:5b:9d:f6:db:b7:86:
         47:34:6f:48:be:67:f3:e7:44:24:04:71:1e:eb:5a:7c:4b:d4:
         3e:7f:89:b4:64:87:7f:10:bb:5e:f8:6b:8f:6f:f8:03:e0:1a:
         3c:12:b8:8a:4c:f5:50:e6:de:47:da:8d:ac:50:0e:9a:78:52:
         73:43:cf:8a:aa:c2:a2:cf:21:23:d4:a8:29:02:d2:d1:98:79:
         3e:f0:ef:09:9d:de:98:08:9e:ff:0d:33:29:42:8c:af:7f:97:
         c8:c8:15:0f:8c:40:fe:d2:f8:de:61:bc:a0:d1:b9:a7:fa:8c:
         11:be:32:0b:38:93:4b:94:b2:95:e2:34:02:1a:f7:3c:8f:2b:
         04:24:5a:02:61:c0:55:bd:76:94:ef:6d:a5:f5:d0:80:3f:38:
         26:12:f8:99:77:b5:4f:87:41:19:29:34:64:66:73:99:1f:e7:
         c9:3e:71:9f:21:bd:d1:5a:a0:a1:81:92:08:12:c7:84:04:ae:
         be:0f:9c:73:cc:3c:27:89:10:dd:7b:08:21:82:1b:53:88:47:
         d8:61:b6:a1:ee:ed:f3:8e:d4:e7:f3:79:36:a8:31:34:d6:f7:
         6d:eb:b8:aa:b3:78:79:40:42:df:86:77:fb:89:c8:a4:dc:63:
         73:0a:77:8d:d4:0b:a0:b5:cf:d9:b4:c6:a0:45:70:52:9b:21:
         2a:3a:91:7f:66:78:2a:fe:d6:24:49:5b:b5:ac:2d:75:64:ce:
         c7:6b:e8:fa:52:15:33:ad:38:4a:62:da:e5:90:63:ee:8b:84:
         18:ec:6b:00:78:58:c6:dd:9b:94:50:a3:8d:2e:9b:ff:93:40:
         27:b6:71:bf:09:d7:84:94
-----BEGIN CERTIFICATE-----
MIIFEDCCAvigAwIBAgIBDzANBgkqhkiG9w0BAQsFADCBkzELMAkGA1UEBhMCVVMx
CzAJBgNVBAgMAkNBMREwDwYDVQQHDAhTdGFuZm9yZDENMAsGA1UECgwEQk1JUjEO
MAwGA1UECwwFQ0VEQVIxHDAaBgNVBAMME21ldGFkYXRhY2VudGVyLm9yZ3gxJzAl
BgkqhkiG9w0BCQEWGG1ldGFkYXRhY2VudGVyQGdtYWlsLmNvbTAeFw0yMDEwMDYw
MDM5NDNaFw0yMzAxMDgwMDM5NDNaMIGFMQswCQYDVQQGEwJVUzELMAkGA1UECAwC
Q0ExDTALBgNVBAoMBEJNSVIxDjAMBgNVBAsMBUNFREFSMSEwHwYDVQQDDBh1c2Vy
Lm1ldGFkYXRhY2VudGVyLm9yZ3gxJzAlBgkqhkiG9w0BCQEWGG1ldGFkYXRhY2Vu
dGVyQGdtYWlsLmNvbTCCASIwDQYJKoZIhvcNAQEBBQADggEPADCCAQoCggEBAOZ6
Qez9mtzSSO8LHAORtLexN2Iqc9V0TAyHSUeaWS0aK+Pnrj4MwS90RScCAf/HFgOn
bEzG95MAlDJvSblg8gkhaqeEu6l7wvCQ9qYzuXC0dPc+ogEGUtpim3TLQhOIBS19
o0LLfItFXB+e+K1AjgGka9T5aNvBYsvKdoX92oBBXAY8xvXFkwXAolVFdEPReGuM
cSQ5QCYmQ7PVlwKsDFGstIvzJJIaX66CeQgrIph3Hl8/Mg2KPSYJxzM+znstspBk
Baf3EiSjtE1bloCadk8djKJuBU4uC11mv+H747QaFUWAiQRLAVproxQgyS5t8Bbp
wpNkWB+sUHKtfdw7X00CAwEAAaN7MHkwCQYDVR0TBAIwADAsBglghkgBhvhCAQ0E
HxYdT3BlblNTTCBHZW5lcmF0ZWQgQ2VydGlmaWNhdGUwHQYDVR0OBBYEFDUtvkyG
cuzYDlmsn+wH/ExZscW5MB8GA1UdIwQYMBaAFHejMXopLio9qiaTx+GOCS4wiA+W
MA0GCSqGSIb3DQEBCwUAA4ICAQAu/9AgAMPBlHKYMyezdPYfB7x2XQZ3ZUxQb/aw
VRhhrU9dEz25RyQ38lkEyAInDHJ2yb5qkTzuhFApBjPf3zsyurTg4EfO1BFfWl8m
hEIpSphFhuRYDMD5r8m18ukbsHot32LbL1kzPXG/DkfbdnuKq01STE9SV8T43h5w
56wf544t7eOhq3EBKDBgn3j1F8m+Q1A/OzP3skSYkiQr6+nRxK98atK48T4/UYhX
uz7zSbak7FrvNHBnTXjeOXllw9hbnfbbt4ZHNG9Ivmfz50QkBHEe61p8S9Q+f4m0
ZId/ELte+GuPb/gD4Bo8EriKTPVQ5t5H2o2sUA6aeFJzQ8+KqsKizyEj1KgpAtLR
mHk+8O8Jnd6YCJ7/DTMpQoyvf5fIyBUPjED+0vjeYbyg0bmn+owRvjILOJNLlLKV
4jQCGvc8jysEJFoCYcBVvXaU722l9dCAPzgmEviZd7VPh0EZKTRkZnOZH+fJPnGf
Ib3RWqChgZIIEseEBK6+D5xzzDwniRDdewghghtTiEfYYbah7u3zjtTn83k2qDE0
1vdt67iqs3h5QELfhnf7icik3GNzCneN1Augtc/ZtMagRXBSmyEqOpF/Zngq/tYk
SVu1rC11ZM7Ha+j6UhUzrThKYtrlkGPui4QY7GsAeFjG3ZuUUKONLpv/k0AntnG/
CdeElA==
-----END CERTIFICATE-----
