Certificate:
    Data:
        Version: 3 (0x2)
        Serial Number: 9 (0x9)
        Signature Algorithm: sha256WithRSAEncryption
        Issuer: C=US, ST=CA, L=Stanford, O=BMIR, OU=CEDAR, CN=metadatacenter.orgx/emailAddress=metadatacenter@gmail.com
        Validity
            Not Before: Oct  6 00:28:30 2020 GMT
            Not After : Jan  8 00:28:30 2023 GMT
        Subject: C=US, ST=CA, O=BMIR, OU=CEDAR, CN=openview.metadatacenter.orgx/emailAddress=metadatacenter@gmail.com
        Subject Public Key Info:
            Public Key Algorithm: rsaEncryption
                RSA Public-Key: (2048 bit)
                Modulus:
                    00:b9:9e:e8:9b:f0:1e:fc:c6:a8:17:05:74:1e:18:
                    10:95:e5:fe:46:9e:a7:2d:b1:06:c3:b8:07:43:1e:
                    7b:e8:f6:d4:47:2a:18:7b:bf:93:59:98:fb:39:9f:
                    c6:a7:ec:7b:26:80:39:f3:14:eb:a9:63:2b:be:a3:
                    1a:4a:da:82:ea:e3:ed:5c:99:65:08:8c:79:e1:e3:
                    dd:f1:07:cd:d7:47:98:3b:46:2e:bb:48:2b:55:5d:
                    be:62:6f:3f:57:00:dc:a7:90:62:a8:a5:b9:1f:a6:
                    6e:6d:ff:13:3e:67:db:5a:9a:cf:18:21:87:b7:e4:
                    49:48:86:8e:6c:71:86:5d:bf:7d:07:5a:1f:c0:19:
                    6e:52:7b:75:c2:37:95:df:07:f0:66:80:44:48:58:
                    b8:a0:ff:55:63:2f:1a:cb:1f:1c:a8:56:e4:dc:45:
                    db:19:3a:ea:80:55:dd:33:27:03:39:d2:9a:3f:6f:
                    97:5f:b1:40:b0:b3:d1:10:5b:c1:01:e8:73:20:9f:
                    de:41:c2:66:90:35:cb:eb:c1:40:11:d2:3f:2b:fa:
                    ee:95:aa:fd:88:f8:a2:0e:c0:f4:d1:e6:33:15:34:
                    22:70:ea:4d:80:5a:a0:70:c6:fe:00:08:3a:4d:db:
                    71:b6:ba:ad:14:b8:99:af:cc:99:98:05:81:8b:12:
                    17:d5
                Exponent: 65537 (0x10001)
        X509v3 extensions:
            X509v3 Basic Constraints: 
                CA:FALSE
            Netscape Comment: 
                OpenSSL Generated Certificate
            X509v3 Subject Key Identifier: 
                C5:75:3B:E5:A7:1D:E8:08:5C:C9:A8:DD:AC:43:0E:F9:FB:B7:2A:9C
            X509v3 Authority Key Identifier: 
                keyid:77:A3:31:7A:29:2E:2A:3D:AA:26:93:C7:E1:8E:09:2E:30:88:0F:96

    Signature Algorithm: sha256WithRSAEncryption
         8a:3d:59:fc:d5:ad:ed:ce:bd:54:95:cb:13:1a:d3:bf:08:82:
         64:0b:02:e8:da:9b:5b:0a:8e:f7:63:d8:0b:dd:97:d8:68:3b:
         73:b1:46:4b:ca:87:b5:6f:52:af:f5:06:25:a4:83:fa:66:32:
         ec:e8:c0:f8:e5:f5:bb:11:eb:f6:53:16:b0:21:fe:f4:eb:fa:
         df:f5:8b:38:d9:04:cb:7c:cc:b1:a5:7d:cb:8c:0b:d3:ad:1d:
         24:d5:e7:78:57:71:30:e1:a6:06:8c:dc:aa:56:dd:76:c9:2a:
         9b:33:4e:b7:9b:86:9d:e8:39:74:96:20:f5:70:26:b4:8d:fc:
         e7:6d:3f:41:6c:86:bd:14:c3:7e:b5:25:5b:30:1c:3f:a4:29:
         09:0c:39:bc:f6:b9:ca:76:d7:db:ce:45:7e:00:8e:4e:9d:e1:
         6c:c7:d5:bf:51:d6:94:3a:8a:7e:a5:1a:7d:4f:f3:ce:72:29:
         cf:b3:b7:95:e4:29:13:2a:0b:c5:1a:d0:d0:1b:e7:f7:12:a3:
         a3:eb:7d:17:cd:a3:30:b7:7d:d5:96:50:e3:6c:6d:a5:f1:7c:
         19:ae:91:1a:fc:bd:e4:11:cf:f6:80:60:db:b1:cb:88:39:b2:
         7d:df:ff:16:76:7f:40:8f:61:25:b2:58:81:cd:e3:0f:a3:a5:
         64:06:28:16:1c:38:11:df:9f:19:1d:db:44:49:07:06:a5:3f:
         4f:d4:c0:9c:ec:13:42:da:08:f7:a8:e0:ef:a0:81:f4:b8:9e:
         ec:5e:3c:77:9b:0f:bd:2c:f5:a9:b7:df:61:bc:cd:d8:c1:41:
         fd:0b:29:a6:06:dd:4b:8c:8d:99:0b:04:c0:55:46:f5:cc:b8:
         88:7d:9d:b2:0d:95:32:1b:c0:da:42:94:f3:50:a9:5e:17:4b:
         2e:c3:5a:6f:45:20:85:57:98:34:d1:1d:77:4d:85:cf:2f:72:
         23:0a:93:63:12:0a:58:73:b9:b0:fd:f6:ee:ff:20:ab:73:0c:
         db:5e:bb:2d:6d:d8:4d:e8:32:38:f0:30:7a:5f:52:9f:20:09:
         45:5b:e9:2d:7d:64:c7:f2:f4:11:88:12:73:36:d1:d8:1b:40:
         d7:ba:bc:06:b4:ed:d1:9f:cc:3d:d6:43:03:a6:75:97:72:54:
         70:de:6a:2e:67:3b:08:35:9b:de:c7:de:bf:7c:71:7f:f3:7f:
         29:e5:67:75:8f:62:42:0a:0f:fd:d6:52:8e:89:39:40:fb:41:
         82:3c:a5:d8:49:d2:55:a1:19:21:d8:ff:fa:51:58:8c:3c:90:
         c6:d1:b4:92:56:aa:08:52:3e:23:96:93:48:a6:41:d0:1f:a8:
         d3:1b:4a:3b:cd:4d:52:f3
-----BEGIN CERTIFICATE-----
MIIFFDCCAvygAwIBAgIBCTANBgkqhkiG9w0BAQsFADCBkzELMAkGA1UEBhMCVVMx
CzAJBgNVBAgMAkNBMREwDwYDVQQHDAhTdGFuZm9yZDENMAsGA1UECgwEQk1JUjEO
MAwGA1UECwwFQ0VEQVIxHDAaBgNVBAMME21ldGFkYXRhY2VudGVyLm9yZ3gxJzAl
BgkqhkiG9w0BCQEWGG1ldGFkYXRhY2VudGVyQGdtYWlsLmNvbTAeFw0yMDEwMDYw
MDI4MzBaFw0yMzAxMDgwMDI4MzBaMIGJMQswCQYDVQQGEwJVUzELMAkGA1UECAwC
Q0ExDTALBgNVBAoMBEJNSVIxDjAMBgNVBAsMBUNFREFSMSUwIwYDVQQDDBxvcGVu
dmlldy5tZXRhZGF0YWNlbnRlci5vcmd4MScwJQYJKoZIhvcNAQkBFhhtZXRhZGF0
YWNlbnRlckBnbWFpbC5jb20wggEiMA0GCSqGSIb3DQEBAQUAA4IBDwAwggEKAoIB
AQC5nuib8B78xqgXBXQeGBCV5f5GnqctsQbDuAdDHnvo9tRHKhh7v5NZmPs5n8an
7HsmgDnzFOupYyu+oxpK2oLq4+1cmWUIjHnh493xB83XR5g7Ri67SCtVXb5ibz9X
ANynkGKopbkfpm5t/xM+Z9tams8YIYe35ElIho5scYZdv30HWh/AGW5Se3XCN5Xf
B/BmgERIWLig/1VjLxrLHxyoVuTcRdsZOuqAVd0zJwM50po/b5dfsUCws9EQW8EB
6HMgn95BwmaQNcvrwUAR0j8r+u6Vqv2I+KIOwPTR5jMVNCJw6k2AWqBwxv4ACDpN
23G2uq0UuJmvzJmYBYGLEhfVAgMBAAGjezB5MAkGA1UdEwQCMAAwLAYJYIZIAYb4
QgENBB8WHU9wZW5TU0wgR2VuZXJhdGVkIENlcnRpZmljYXRlMB0GA1UdDgQWBBTF
dTvlpx3oCFzJqN2sQw75+7cqnDAfBgNVHSMEGDAWgBR3ozF6KS4qPaomk8fhjgku
MIgPljANBgkqhkiG9w0BAQsFAAOCAgEAij1Z/NWt7c69VJXLExrTvwiCZAsC6Nqb
WwqO92PYC92X2Gg7c7FGS8qHtW9Sr/UGJaSD+mYy7OjA+OX1uxHr9lMWsCH+9Ov6
3/WLONkEy3zMsaV9y4wL060dJNXneFdxMOGmBozcqlbddskqmzNOt5uGneg5dJYg
9XAmtI38520/QWyGvRTDfrUlWzAcP6QpCQw5vPa5ynbX285FfgCOTp3hbMfVv1HW
lDqKfqUafU/zznIpz7O3leQpEyoLxRrQ0Bvn9xKjo+t9F82jMLd91ZZQ42xtpfF8
Ga6RGvy95BHP9oBg27HLiDmyfd//FnZ/QI9hJbJYgc3jD6OlZAYoFhw4Ed+fGR3b
REkHBqU/T9TAnOwTQtoI96jg76CB9Lie7F48d5sPvSz1qbffYbzN2MFB/Qsppgbd
S4yNmQsEwFVG9cy4iH2dsg2VMhvA2kKU81CpXhdLLsNab0UghVeYNNEdd02Fzy9y
IwqTYxIKWHO5sP327v8gq3MM2167LW3YTegyOPAwel9SnyAJRVvpLX1kx/L0EYgS
czbR2BtA17q8BrTt0Z/MPdZDA6Z1l3JUcN5qLmc7CDWb3sfev3xxf/N/KeVndY9i
QgoP/dZSjok5QPtBgjyl2EnSVaEZIdj/+lFYjDyQxtG0klaqCFI+I5aTSKZB0B+o
0xtKO81NUvM=
-----END CERTIFICATE-----
