Certificate:
    Data:
        Version: 3 (0x2)
        Serial Number: 8 (0x8)
    Signature Algorithm: sha256WithRSAEncryption
        Issuer: C=US, ST=California, L=Stanford, O=BMIR, OU=CEDAR, CN=metadatacenter.orgx/emailAddress=metadatacenter@gmail.com
        Validity
            Not Before: Jun 11 23:31:20 2018 GMT
            Not After : Jun  8 23:31:20 2028 GMT
        Subject: C=US, ST=California, O=BMIR, OU=CEDAR, CN=repo.metadatacenter.orgx/emailAddress=metadatacenter@gmail.com
        Subject Public Key Info:
            Public Key Algorithm: rsaEncryption
                Public-Key: (2048 bit)
                Modulus:
                    00:b4:96:5a:a3:5a:85:19:8c:ce:6a:8b:20:9a:38:
                    38:d0:f0:ab:2a:86:a6:1c:f1:3a:46:4e:84:98:39:
                    9a:15:84:8b:fb:67:2a:f1:d3:d5:a7:54:05:65:45:
                    99:99:db:46:9f:84:a0:ce:e9:d8:7b:f7:02:40:6e:
                    06:2b:fb:e6:31:19:2e:e0:24:06:26:2f:7c:46:2e:
                    b9:d1:6a:08:ef:3f:f2:35:a6:06:ae:23:c0:81:1a:
                    f2:17:0f:e2:94:8b:a3:ce:5f:ae:ac:2a:fe:1c:ef:
                    27:21:d2:d5:4d:6e:e8:06:4e:a1:fc:bd:cf:6d:12:
                    65:e4:08:41:0f:c3:f5:b6:0f:23:13:e9:25:92:cc:
                    80:6b:69:61:c3:2e:78:68:fb:bd:89:38:16:f6:12:
                    2f:a8:27:87:ad:e0:d9:49:ac:84:38:40:18:e1:b6:
                    46:47:bd:16:70:59:19:fa:9b:6a:1c:3f:ce:59:a7:
                    a9:41:e9:50:16:1a:31:a7:a1:b7:f9:6f:ee:45:53:
                    4c:79:2d:6a:68:a8:e0:53:da:ee:c4:31:ac:ca:ac:
                    2f:b6:b1:45:22:37:ab:d9:c6:71:64:d8:5e:91:8e:
                    c5:a3:5b:1d:a5:40:ae:b6:db:cd:c0:2d:83:ce:88:
                    07:35:b3:25:89:a9:bf:67:cc:32:6f:fa:f5:a4:22:
                    71:b9
                Exponent: 65537 (0x10001)
        X509v3 extensions:
            X509v3 Basic Constraints: 
                CA:FALSE
            Netscape Comment: 
                OpenSSL Generated Certificate
            X509v3 Subject Key Identifier: 
                50:0C:9D:B4:C4:62:49:51:74:EA:6E:6C:8B:44:7D:7A:F1:19:69:77
            X509v3 Authority Key Identifier: 
                keyid:FB:A7:23:D3:57:E6:17:E1:D9:AF:FE:71:2C:97:E1:EA:94:5D:FC:D6

            X509v3 Subject Alternative Name: 
                DNS:*.metadatacenter.orgx
    Signature Algorithm: sha256WithRSAEncryption
         97:47:4a:df:54:52:c2:ce:e3:11:5b:01:81:28:4a:d7:4d:85:
         bc:01:95:8b:21:b1:a7:5a:a8:28:8f:8a:46:c2:ba:b8:ee:2f:
         cd:13:db:90:31:45:9e:97:73:4a:be:60:4a:61:34:13:19:a6:
         7f:b6:56:58:00:ba:d5:3f:e1:8f:af:e8:d6:67:ee:7b:00:c7:
         11:75:c6:0d:61:d6:89:f6:04:cd:b1:c6:16:cf:22:cc:5f:85:
         c2:4d:67:e5:83:f4:ed:a9:7a:1a:78:12:2c:8a:cb:84:70:4d:
         aa:25:a8:b9:6b:d1:b0:bf:00:6b:dc:07:7c:32:1a:2b:4e:da:
         37:54:e4:c8:4c:d7:8c:07:cf:aa:32:70:14:b4:2d:b8:f3:ba:
         c6:54:73:47:f7:ca:5c:08:ed:8a:9b:03:9a:71:45:3a:36:e2:
         ac:06:03:01:5f:4a:2e:54:25:91:0e:8c:67:31:9a:ce:15:43:
         cf:be:ce:cb:24:23:f1:31:4a:ba:1c:fe:5b:ab:83:12:b2:4a:
         db:ee:4f:eb:be:e5:77:ee:82:25:55:f1:04:f8:ea:7d:62:42:
         2a:58:3f:c1:35:d3:9d:d0:9a:da:50:5f:f9:3e:db:36:bc:fb:
         9e:9c:8b:48:da:5d:23:0e:53:b5:99:a2:3a:b5:de:5f:80:1f:
         a3:8a:2d:b1:4d:1f:11:fc:d9:37:41:ac:ae:be:c8:d3:98:8b:
         71:7e:5d:90:ef:1c:7e:6c:5f:e0:3c:46:7e:d3:c7:9b:ca:82:
         c4:96:69:6a:17:65:6c:be:48:56:44:8f:63:56:66:9a:9c:1e:
         8e:c4:97:42:35:18:19:83:41:e6:a1:a0:eb:a8:39:bb:28:09:
         59:a2:e1:04:2b:f3:82:f2:bd:5e:b1:e5:30:4f:4e:ac:3a:c8:
         52:33:3d:83:e1:ab:6c:ca:96:1d:36:5f:64:64:d5:7c:3f:bc:
         99:b9:ff:a9:9b:82:e2:11:60:df:df:54:e6:4c:60:2a:85:4e:
         37:fb:9d:98:d2:4a:07:13:7e:4e:66:78:bc:40:9e:0a:e2:1b:
         d6:71:96:89:ec:8c:55:0c:85:53:df:f4:95:4e:f2:86:63:c5:
         99:b6:37:a5:5f:ef:20:ea:c2:32:2f:2c:81:ba:98:e9:48:eb:
         10:01:93:b1:13:cd:46:93:86:1f:08:54:65:53:44:ea:b4:cc:
         15:ba:e5:96:e6:b0:ee:f1:b6:d7:56:1a:79:83:df:a8:fe:db:
         45:bd:b0:b9:a5:04:cb:52:8e:b3:58:5e:a5:6a:c7:11:44:5f:
         cc:20:f3:61:3e:de:74:e4:67:03:98:a3:5e:21:ce:ad:76:ae:
         cc:f0:67:39:53:07:be:0f
-----BEGIN CERTIFICATE-----
MIIFRDCCAyygAwIBAgIBCDANBgkqhkiG9w0BAQsFADCBmzELMAkGA1UEBhMCVVMx
EzARBgNVBAgMCkNhbGlmb3JuaWExETAPBgNVBAcMCFN0YW5mb3JkMQ0wCwYDVQQK
DARCTUlSMQ4wDAYDVQQLDAVDRURBUjEcMBoGA1UEAwwTbWV0YWRhdGFjZW50ZXIu
b3JneDEnMCUGCSqGSIb3DQEJARYYbWV0YWRhdGFjZW50ZXJAZ21haWwuY29tMB4X
DTE4MDYxMTIzMzEyMFoXDTI4MDYwODIzMzEyMFowgY0xCzAJBgNVBAYTAlVTMRMw
EQYDVQQIDApDYWxpZm9ybmlhMQ0wCwYDVQQKDARCTUlSMQ4wDAYDVQQLDAVDRURB
UjEhMB8GA1UEAwwYcmVwby5tZXRhZGF0YWNlbnRlci5vcmd4MScwJQYJKoZIhvcN
AQkBFhhtZXRhZGF0YWNlbnRlckBnbWFpbC5jb20wggEiMA0GCSqGSIb3DQEBAQUA
A4IBDwAwggEKAoIBAQC0llqjWoUZjM5qiyCaODjQ8KsqhqYc8TpGToSYOZoVhIv7
Zyrx09WnVAVlRZmZ20afhKDO6dh79wJAbgYr++YxGS7gJAYmL3xGLrnRagjvP/I1
pgauI8CBGvIXD+KUi6POX66sKv4c7ych0tVNbugGTqH8vc9tEmXkCEEPw/W2DyMT
6SWSzIBraWHDLnho+72JOBb2Ei+oJ4et4NlJrIQ4QBjhtkZHvRZwWRn6m2ocP85Z
p6lB6VAWGjGnobf5b+5FU0x5LWpoqOBT2u7EMazKrC+2sUUiN6vZxnFk2F6RjsWj
Wx2lQK62283ALYPOiAc1syWJqb9nzDJv+vWkInG5AgMBAAGjgZ4wgZswCQYDVR0T
BAIwADAsBglghkgBhvhCAQ0EHxYdT3BlblNTTCBHZW5lcmF0ZWQgQ2VydGlmaWNh
dGUwHQYDVR0OBBYEFFAMnbTEYklRdOpubItEfXrxGWl3MB8GA1UdIwQYMBaAFPun
I9NX5hfh2a/+cSyX4eqUXfzWMCAGA1UdEQQZMBeCFSoubWV0YWRhdGFjZW50ZXIu
b3JneDANBgkqhkiG9w0BAQsFAAOCAgEAl0dK31RSws7jEVsBgShK102FvAGViyGx
p1qoKI+KRsK6uO4vzRPbkDFFnpdzSr5gSmE0Exmmf7ZWWAC61T/hj6/o1mfuewDH
EXXGDWHWifYEzbHGFs8izF+Fwk1n5YP07al6GngSLIrLhHBNqiWouWvRsL8Aa9wH
fDIaK07aN1TkyEzXjAfPqjJwFLQtuPO6xlRzR/fKXAjtipsDmnFFOjbirAYDAV9K
LlQlkQ6MZzGazhVDz77OyyQj8TFKuhz+W6uDErJK2+5P677ld+6CJVXxBPjqfWJC
Klg/wTXTndCa2lBf+T7bNrz7npyLSNpdIw5TtZmiOrXeX4Afo4otsU0fEfzZN0Gs
rr7I05iLcX5dkO8cfmxf4DxGftPHm8qCxJZpahdlbL5IVkSPY1ZmmpwejsSXQjUY
GYNB5qGg66g5uygJWaLhBCvzgvK9XrHlME9OrDrIUjM9g+GrbMqWHTZfZGTVfD+8
mbn/qZuC4hFg399U5kxgKoVON/udmNJKBxN+TmZ4vECeCuIb1nGWieyMVQyFU9/0
lU7yhmPFmbY3pV/vIOrCMi8sgbqY6UjrEAGTsRPNRpOGHwhUZVNE6rTMFbrlluaw
7vG211YaeYPfqP7bRb2wuaUEy1KOs1hepWrHEURfzCDzYT7edORnA5ijXiHOrXau
zPBnOVMHvg8=
-----END CERTIFICATE-----
