Certificate:
    Data:
        Version: 3 (0x2)
        Serial Number: 10 (0xa)
        Signature Algorithm: sha256WithRSAEncryption
        Issuer: C=US, ST=CA, L=Stanford, O=BMIR, OU=CEDAR, CN=metadatacenter.orgx/emailAddress=metadatacenter@gmail.com
        Validity
            Not Before: Oct  6 00:31:07 2020 GMT
            Not After : Jan  8 00:31:07 2023 GMT
        Subject: C=US, ST=CA, O=BMIR, OU=CEDAR, CN=repo.metadatacenter.orgx/emailAddress=metadatacenter@gmail.com
        Subject Public Key Info:
            Public Key Algorithm: rsaEncryption
                RSA Public-Key: (2048 bit)
                Modulus:
                    00:d0:22:fe:0c:78:c2:f5:a7:29:1e:0a:d6:41:05:
                    60:6e:b2:c0:8e:cb:9d:2e:ac:03:a7:48:79:e2:24:
                    c4:a8:80:85:42:ce:b8:2e:f1:64:f4:fd:d5:52:ec:
                    78:31:27:13:07:3c:95:a7:76:07:19:5e:e9:fb:ee:
                    3e:cf:73:69:9d:5f:23:6a:7c:88:40:88:97:ed:91:
                    01:5f:35:d7:b6:ea:06:1b:a4:a3:d4:90:56:71:09:
                    73:e3:fe:4c:69:7a:1d:8e:d6:fc:64:b7:51:2e:64:
                    43:4d:c4:4e:81:71:06:7c:f9:a3:d6:43:0e:a1:ed:
                    fd:40:df:39:5a:01:cd:4a:7d:07:a6:d9:01:53:82:
                    02:3e:e2:a9:ca:6d:bb:c7:17:bf:1d:a1:99:90:a2:
                    44:3c:17:67:35:33:20:47:e0:bc:57:ef:78:4e:95:
                    8b:9f:1c:1b:8f:08:29:1c:87:fe:be:c4:8f:35:65:
                    87:d3:7f:80:70:d6:b6:00:e1:0b:98:4b:49:1f:a7:
                    b9:d7:5f:fb:ac:ee:80:cb:e2:d4:d1:dc:b6:fd:0d:
                    90:82:4a:09:e2:27:c1:51:90:6b:06:ae:15:a1:3f:
                    08:08:22:c9:f3:94:fd:38:32:c1:9e:27:9b:3f:3d:
                    4a:8b:12:ba:ef:1c:02:0a:9f:89:1c:bb:7a:14:ad:
                    19:d9
                Exponent: 65537 (0x10001)
        X509v3 extensions:
            X509v3 Basic Constraints: 
                CA:FALSE
            Netscape Comment: 
                OpenSSL Generated Certificate
            X509v3 Subject Key Identifier: 
                89:33:1F:0F:11:85:B5:4F:FA:42:ED:C4:CD:8E:81:18:FA:5F:36:63
            X509v3 Authority Key Identifier: 
                keyid:77:A3:31:7A:29:2E:2A:3D:AA:26:93:C7:E1:8E:09:2E:30:88:0F:96

    Signature Algorithm: sha256WithRSAEncryption
         68:73:35:ad:f6:10:fd:0d:36:eb:f6:22:2e:e3:d6:4f:d6:1e:
         28:98:f0:ef:38:31:c5:b8:17:73:67:b8:e9:5d:7b:69:66:97:
         18:b9:bf:b8:c1:1a:85:34:fb:47:00:00:da:93:f9:65:99:f5:
         3d:42:19:27:1e:7e:4d:10:a0:a8:cf:d9:b1:d8:93:74:6e:9e:
         57:4a:56:ff:47:cb:0b:56:ef:8c:a2:7b:f0:c5:b1:fd:ce:aa:
         7c:14:3e:c1:3d:9e:dd:55:33:99:04:60:cf:d8:72:9b:44:5f:
         e5:13:70:64:13:90:bb:89:70:51:ec:35:42:56:76:27:50:98:
         79:c7:5f:9d:ad:b0:36:07:01:5b:df:96:75:6e:70:76:74:48:
         a3:38:16:97:c0:f5:41:aa:1b:69:f8:70:54:32:bc:16:f4:69:
         7f:e0:a1:8b:ed:6e:a7:1b:81:fe:89:f5:c0:98:6c:8b:96:65:
         af:d4:05:29:75:05:ee:b0:c2:75:f1:fd:71:bd:31:7e:f6:b0:
         fa:03:f2:ff:70:0c:08:53:c2:e9:8d:9c:46:c5:ea:f1:13:72:
         22:c0:2c:72:f2:46:bd:c1:c0:3b:81:c6:61:0a:2e:20:44:1c:
         be:94:8d:9d:57:aa:04:35:6a:16:46:71:07:c5:84:9a:39:c8:
         63:f8:81:40:32:4f:c7:32:fd:16:c2:55:3b:cf:7f:dc:32:87:
         5e:f0:2f:c8:81:6c:d0:8b:a3:98:ff:b0:1f:d8:8a:22:95:96:
         7d:f7:cf:8c:b0:78:60:87:c8:10:b1:f3:bd:ea:05:f0:e8:49:
         75:49:0a:27:16:9f:da:8c:cb:ad:1c:4f:16:50:a6:8d:81:2f:
         89:64:27:1c:1f:de:2b:df:09:5c:ac:54:90:3e:36:fa:aa:ad:
         f3:1c:5f:d2:07:d2:0c:35:7c:35:97:f9:3b:f2:26:9c:96:c6:
         49:ad:e4:e4:0f:4b:e6:bf:7c:3a:e6:a2:37:99:39:2c:e1:2a:
         b5:d4:e1:3d:de:5b:b9:dd:25:6b:97:a9:b9:d6:8b:4e:24:b1:
         ff:78:a3:3a:49:fd:a7:72:bb:49:0a:bf:08:f7:b4:5b:89:41:
         4c:d9:74:d1:6e:f9:81:54:46:e1:cf:34:02:61:af:01:cd:26:
         32:0b:5e:8d:f6:66:8c:27:b0:0a:4e:20:b8:5d:16:cd:2d:a5:
         b0:27:40:f0:64:a8:ed:ed:b7:95:0b:09:ce:f8:dd:9b:0a:3e:
         ea:fe:c8:f3:9e:05:8e:6d:b4:d6:15:59:0b:c5:d7:99:42:a0:
         a3:8c:93:81:49:ff:00:eb:3c:08:8a:b1:94:38:be:13:e3:5f:
         f5:10:ef:c9:8c:42:5c:06
-----BEGIN CERTIFICATE-----
MIIFEDCCAvigAwIBAgIBCjANBgkqhkiG9w0BAQsFADCBkzELMAkGA1UEBhMCVVMx
CzAJBgNVBAgMAkNBMREwDwYDVQQHDAhTdGFuZm9yZDENMAsGA1UECgwEQk1JUjEO
MAwGA1UECwwFQ0VEQVIxHDAaBgNVBAMME21ldGFkYXRhY2VudGVyLm9yZ3gxJzAl
BgkqhkiG9w0BCQEWGG1ldGFkYXRhY2VudGVyQGdtYWlsLmNvbTAeFw0yMDEwMDYw
MDMxMDdaFw0yMzAxMDgwMDMxMDdaMIGFMQswCQYDVQQGEwJVUzELMAkGA1UECAwC
Q0ExDTALBgNVBAoMBEJNSVIxDjAMBgNVBAsMBUNFREFSMSEwHwYDVQQDDBhyZXBv
Lm1ldGFkYXRhY2VudGVyLm9yZ3gxJzAlBgkqhkiG9w0BCQEWGG1ldGFkYXRhY2Vu
dGVyQGdtYWlsLmNvbTCCASIwDQYJKoZIhvcNAQEBBQADggEPADCCAQoCggEBANAi
/gx4wvWnKR4K1kEFYG6ywI7LnS6sA6dIeeIkxKiAhULOuC7xZPT91VLseDEnEwc8
lad2Bxle6fvuPs9zaZ1fI2p8iECIl+2RAV8117bqBhuko9SQVnEJc+P+TGl6HY7W
/GS3US5kQ03EToFxBnz5o9ZDDqHt/UDfOVoBzUp9B6bZAVOCAj7iqcptu8cXvx2h
mZCiRDwXZzUzIEfgvFfveE6Vi58cG48IKRyH/r7EjzVlh9N/gHDWtgDhC5hLSR+n
uddf+6zugMvi1NHctv0NkIJKCeInwVGQawauFaE/CAgiyfOU/TgywZ4nmz89SosS
uu8cAgqfiRy7ehStGdkCAwEAAaN7MHkwCQYDVR0TBAIwADAsBglghkgBhvhCAQ0E
HxYdT3BlblNTTCBHZW5lcmF0ZWQgQ2VydGlmaWNhdGUwHQYDVR0OBBYEFIkzHw8R
hbVP+kLtxM2OgRj6XzZjMB8GA1UdIwQYMBaAFHejMXopLio9qiaTx+GOCS4wiA+W
MA0GCSqGSIb3DQEBCwUAA4ICAQBoczWt9hD9DTbr9iIu49ZP1h4omPDvODHFuBdz
Z7jpXXtpZpcYub+4wRqFNPtHAADak/llmfU9QhknHn5NEKCoz9mx2JN0bp5XSlb/
R8sLVu+MonvwxbH9zqp8FD7BPZ7dVTOZBGDP2HKbRF/lE3BkE5C7iXBR7DVCVnYn
UJh5x1+drbA2BwFb35Z1bnB2dEijOBaXwPVBqhtp+HBUMrwW9Gl/4KGL7W6nG4H+
ifXAmGyLlmWv1AUpdQXusMJ18f1xvTF+9rD6A/L/cAwIU8LpjZxGxerxE3IiwCxy
8ka9wcA7gcZhCi4gRBy+lI2dV6oENWoWRnEHxYSaOchj+IFAMk/HMv0WwlU7z3/c
Mode8C/IgWzQi6OY/7Af2IoilZZ998+MsHhgh8gQsfO96gXw6El1SQonFp/ajMut
HE8WUKaNgS+JZCccH94r3wlcrFSQPjb6qq3zHF/SB9IMNXw1l/k78iaclsZJreTk
D0vmv3w65qI3mTks4Sq11OE93lu53SVrl6m51otOJLH/eKM6Sf2ncrtJCr8I97Rb
iUFM2XTRbvmBVEbhzzQCYa8BzSYyC16N9maMJ7AKTiC4XRbNLaWwJ0DwZKjt7beV
CwnO+N2bCj7q/sjzngWObbTWFVkLxdeZQqCjjJOBSf8A6zwIirGUOL4T41/1EO/J
jEJcBg==
-----END CERTIFICATE-----
