Certificate:
    Data:
        Version: 3 (0x2)
        Serial Number: 3 (0x3)
        Signature Algorithm: sha256WithRSAEncryption
        Issuer: C=US, ST=CA, L=Stanford, O=BMIR, OU=CEDAR, CN=metadatacenter.orgx/emailAddress=metadatacenter@gmail.com
        Validity
            Not Before: Oct  6 00:11:11 2020 GMT
            Not After : Jan  8 00:11:11 2023 GMT
        Subject: C=US, ST=CA, O=BMIR, OU=CEDAR, CN=auth.metedatacenter.orgx/emailAddress=metadatacenter@gmail.com
        Subject Public Key Info:
            Public Key Algorithm: rsaEncryption
                RSA Public-Key: (2048 bit)
                Modulus:
                    00:c7:1f:2d:51:3f:bc:df:99:a6:19:d7:81:e3:30:
                    22:5d:88:d9:e9:01:a7:78:eb:16:2d:0d:31:56:07:
                    95:27:1a:50:00:87:04:60:84:58:c1:ef:96:40:95:
                    7b:f2:ae:66:60:25:7a:40:a0:2d:ae:3c:99:b3:da:
                    ae:47:24:6f:ce:3a:8b:03:5d:24:5d:a4:79:cc:c8:
                    a5:0e:f4:4c:c1:85:3c:ff:9e:e9:00:ff:82:bd:ce:
                    72:a5:92:d2:fe:88:e3:fb:ec:a5:56:f6:36:68:23:
                    1e:ea:e7:b2:c6:7c:88:93:2f:4a:9d:7f:a6:04:bf:
                    36:65:f5:82:ca:89:ae:a2:f2:a2:cd:f0:17:95:bf:
                    1f:e3:60:36:c4:55:5b:f8:f7:3e:67:9e:e4:8d:c1:
                    cd:be:e7:aa:18:cb:95:6b:d9:61:bf:48:7d:cf:1f:
                    f5:65:10:8d:61:07:0e:d3:79:7f:a9:9b:cf:5d:4d:
                    bc:39:ba:fb:61:47:43:ee:ec:7a:14:33:38:fa:9a:
                    f9:aa:3b:9d:dd:45:1a:21:52:dc:c9:83:97:50:d7:
                    dd:80:3c:92:4d:78:eb:70:39:b7:cd:bf:44:46:80:
                    c7:1e:a7:da:70:11:5e:5a:78:59:90:63:b3:91:eb:
                    16:e5:68:b3:75:fc:6f:80:33:84:0b:66:62:d8:be:
                    bf:f9
                Exponent: 65537 (0x10001)
        X509v3 extensions:
            X509v3 Basic Constraints: 
                CA:FALSE
            Netscape Comment: 
                OpenSSL Generated Certificate
            X509v3 Subject Key Identifier: 
                98:24:57:54:E6:CE:19:A8:0F:85:CD:F9:0E:FA:B4:3F:D5:2C:9F:48
            X509v3 Authority Key Identifier: 
                keyid:77:A3:31:7A:29:2E:2A:3D:AA:26:93:C7:E1:8E:09:2E:30:88:0F:96

    Signature Algorithm: sha256WithRSAEncryption
         2a:33:30:f4:a0:1d:9a:9e:fb:04:5b:e6:f3:90:87:2e:2f:97:
         e1:01:f0:d7:01:0a:55:30:f6:7f:3d:38:5c:da:d1:57:b3:6f:
         3f:1a:45:64:9d:40:75:33:ed:81:08:bd:15:57:89:b2:4b:d3:
         ac:08:59:da:4a:6c:4e:59:72:b0:7b:f7:3f:60:aa:45:dc:e8:
         32:0f:67:3b:5e:fd:46:cb:11:c4:50:01:a9:d2:d4:c7:f8:0d:
         e6:30:37:63:59:f3:05:c4:5d:9f:49:39:e7:6a:cb:93:bb:0b:
         c1:ef:5b:f6:b3:13:b6:42:f5:24:94:17:a0:ed:c3:29:7c:a5:
         33:f7:c0:75:d9:f5:b1:33:8c:2a:88:6b:20:b8:a8:73:56:27:
         2c:9c:5a:35:65:ee:9a:22:49:1f:f2:c6:be:97:f9:23:70:78:
         ac:fd:d8:5b:f6:e3:fb:be:f8:f1:14:6d:6c:c2:3d:c8:f0:12:
         46:69:2f:72:69:3d:e8:ff:bf:69:d2:17:c9:8a:2f:4b:e0:70:
         2d:76:3a:ce:15:a1:08:21:46:9a:24:ae:c6:76:30:f7:3e:81:
         34:e1:f4:53:90:52:28:04:ab:e2:ef:50:10:f2:31:93:b2:b3:
         20:1f:3f:eb:8f:f6:f4:81:3e:5c:c1:1e:84:53:b9:21:12:a8:
         7e:38:47:9e:3e:8e:49:f0:91:2a:89:d1:54:63:16:b8:92:c1:
         7c:50:c5:2b:ab:61:63:d3:0e:43:6a:4a:b3:49:05:7c:fb:c4:
         1b:26:72:3e:ab:6e:6c:23:4d:f5:fc:f7:ab:d6:56:96:a0:39:
         5e:5d:39:d4:08:e6:21:f6:e9:89:a6:94:84:59:de:b7:a0:e6:
         8c:d2:1e:95:43:78:5b:dd:90:e6:1c:ae:01:63:6b:54:28:f7:
         70:fe:c6:f0:2a:b0:6c:4d:f9:a8:7f:da:01:99:ee:22:1e:a6:
         b0:54:04:2b:b2:da:1f:e2:06:60:3a:be:71:ea:92:be:df:94:
         5e:f7:45:07:5e:61:b5:51:9c:4f:ee:2f:9f:4a:ee:c0:1b:e4:
         bd:17:64:43:ec:9a:41:4a:fd:d7:49:c5:29:a8:61:f9:6d:93:
         92:ed:5d:43:e8:18:58:04:66:aa:96:cd:b2:af:5c:a2:0a:af:
         da:da:e3:ee:46:73:f5:4e:58:fc:12:26:af:85:9a:3f:4a:67:
         16:6c:d6:45:83:0c:6d:0b:50:72:b7:0d:8a:5f:77:3f:60:56:
         77:a0:d9:30:8a:28:67:ed:72:9e:4f:dd:b7:76:6f:a0:50:f3:
         2c:1f:11:77:50:ad:b2:20:d1:d4:1a:c9:6f:15:fe:22:f3:e5:
         2b:8b:24:57:a8:af:95:8b
-----BEGIN CERTIFICATE-----
MIIFEDCCAvigAwIBAgIBAzANBgkqhkiG9w0BAQsFADCBkzELMAkGA1UEBhMCVVMx
CzAJBgNVBAgMAkNBMREwDwYDVQQHDAhTdGFuZm9yZDENMAsGA1UECgwEQk1JUjEO
MAwGA1UECwwFQ0VEQVIxHDAaBgNVBAMME21ldGFkYXRhY2VudGVyLm9yZ3gxJzAl
BgkqhkiG9w0BCQEWGG1ldGFkYXRhY2VudGVyQGdtYWlsLmNvbTAeFw0yMDEwMDYw
MDExMTFaFw0yMzAxMDgwMDExMTFaMIGFMQswCQYDVQQGEwJVUzELMAkGA1UECAwC
Q0ExDTALBgNVBAoMBEJNSVIxDjAMBgNVBAsMBUNFREFSMSEwHwYDVQQDDBhhdXRo
Lm1ldGVkYXRhY2VudGVyLm9yZ3gxJzAlBgkqhkiG9w0BCQEWGG1ldGFkYXRhY2Vu
dGVyQGdtYWlsLmNvbTCCASIwDQYJKoZIhvcNAQEBBQADggEPADCCAQoCggEBAMcf
LVE/vN+ZphnXgeMwIl2I2ekBp3jrFi0NMVYHlScaUACHBGCEWMHvlkCVe/KuZmAl
ekCgLa48mbParkckb846iwNdJF2keczIpQ70TMGFPP+e6QD/gr3OcqWS0v6I4/vs
pVb2NmgjHurnssZ8iJMvSp1/pgS/NmX1gsqJrqLyos3wF5W/H+NgNsRVW/j3Pmee
5I3Bzb7nqhjLlWvZYb9Ifc8f9WUQjWEHDtN5f6mbz11NvDm6+2FHQ+7sehQzOPqa
+ao7nd1FGiFS3MmDl1DX3YA8kk1463A5t82/REaAxx6n2nARXlp4WZBjs5HrFuVo
s3X8b4AzhAtmYti+v/kCAwEAAaN7MHkwCQYDVR0TBAIwADAsBglghkgBhvhCAQ0E
HxYdT3BlblNTTCBHZW5lcmF0ZWQgQ2VydGlmaWNhdGUwHQYDVR0OBBYEFJgkV1Tm
zhmoD4XN+Q76tD/VLJ9IMB8GA1UdIwQYMBaAFHejMXopLio9qiaTx+GOCS4wiA+W
MA0GCSqGSIb3DQEBCwUAA4ICAQAqMzD0oB2anvsEW+bzkIcuL5fhAfDXAQpVMPZ/
PThc2tFXs28/GkVknUB1M+2BCL0VV4myS9OsCFnaSmxOWXKwe/c/YKpF3OgyD2c7
Xv1GyxHEUAGp0tTH+A3mMDdjWfMFxF2fSTnnasuTuwvB71v2sxO2QvUklBeg7cMp
fKUz98B12fWxM4wqiGsguKhzVicsnFo1Ze6aIkkf8sa+l/kjcHis/dhb9uP7vvjx
FG1swj3I8BJGaS9yaT3o/79p0hfJii9L4HAtdjrOFaEIIUaaJK7GdjD3PoE04fRT
kFIoBKvi71AQ8jGTsrMgHz/rj/b0gT5cwR6EU7khEqh+OEeePo5J8JEqidFUYxa4
ksF8UMUrq2Fj0w5DakqzSQV8+8QbJnI+q25sI031/Per1laWoDleXTnUCOYh9umJ
ppSEWd63oOaM0h6VQ3hb3ZDmHK4BY2tUKPdw/sbwKrBsTfmof9oBme4iHqawVAQr
stof4gZgOr5x6pK+35Re90UHXmG1UZxP7i+fSu7AG+S9F2RD7JpBSv3XScUpqGH5
bZOS7V1D6BhYBGaqls2yr1yiCq/a2uPuRnP1Tlj8EiavhZo/SmcWbNZFgwxtC1By
tw2KX3c/YFZ3oNkwiihn7XKeT923dm+gUPMsHxF3UK2yINHUGslvFf4i8+UriyRX
qK+Viw==
-----END CERTIFICATE-----
