Certificate:
    Data:
        Version: 3 (0x2)
        Serial Number: 4 (0x4)
    Signature Algorithm: sha256WithRSAEncryption
        Issuer: C=US, ST=California, L=Stanford, O=BMIR, OU=CEDAR, CN=metadatacenter.orgx/emailAddress=metadatacenter@gmail.com
        Validity
            Not Before: Jun 11 23:27:25 2018 GMT
            Not After : Jun  8 23:27:25 2028 GMT
        Subject: C=US, ST=California, O=BMIR, OU=CEDAR, CN=auth.metadatacenter.orgx/emailAddress=metadatacenter@gmail.com
        Subject Public Key Info:
            Public Key Algorithm: rsaEncryption
                Public-Key: (2048 bit)
                Modulus:
                    00:ba:36:21:47:52:50:b1:ef:05:04:fe:c1:9a:a7:
                    d7:fa:2f:3b:62:7f:47:bc:5a:7a:32:d7:c4:50:1d:
                    93:4e:f6:db:1d:a2:c2:48:d7:4f:59:a2:cd:0d:14:
                    59:e6:aa:46:9a:2f:5d:b3:b5:76:65:78:11:0b:86:
                    5b:91:ee:98:01:1c:79:f8:12:59:ea:e0:58:f2:7d:
                    ee:1b:a5:c3:65:7e:24:c1:3e:bc:0d:16:57:d0:43:
                    dc:93:b1:dd:b6:94:3e:1d:0d:6f:20:53:f6:22:b7:
                    0d:01:66:b1:d8:00:e2:4a:b7:b1:f1:ac:a7:b5:a0:
                    88:be:78:08:b9:c4:96:4f:e7:d9:38:4a:9e:bc:35:
                    87:d8:0a:4d:5c:30:ba:8b:76:2e:d0:09:6d:65:0f:
                    44:4b:78:e8:57:02:c4:ea:31:5f:42:aa:1a:f2:63:
                    1f:14:f4:30:4f:57:40:76:75:51:13:30:e5:08:87:
                    f3:94:b7:80:05:3f:55:50:95:79:1b:f9:ed:e3:c7:
                    bd:8d:cb:4b:7e:7e:9e:23:e0:6f:c1:53:67:d8:f0:
                    6a:ca:c7:c8:b7:2b:be:5c:da:57:08:2b:b5:ff:e3:
                    3f:5c:b7:d3:c5:e3:51:18:57:45:1c:79:88:af:44:
                    0f:da:47:62:18:a9:d3:13:27:15:24:07:41:4e:fe:
                    30:49
                Exponent: 65537 (0x10001)
        X509v3 extensions:
            X509v3 Basic Constraints: 
                CA:FALSE
            Netscape Comment: 
                OpenSSL Generated Certificate
            X509v3 Subject Key Identifier: 
                13:15:9C:27:85:E7:45:DC:C2:63:4A:B0:58:96:43:B6:7B:79:91:A7
            X509v3 Authority Key Identifier: 
                keyid:FB:A7:23:D3:57:E6:17:E1:D9:AF:FE:71:2C:97:E1:EA:94:5D:FC:D6

            X509v3 Subject Alternative Name: 
                DNS:*.metadatacenter.orgx
    Signature Algorithm: sha256WithRSAEncryption
         08:38:83:31:24:8a:9f:a8:93:c8:ed:b5:8c:4e:0f:a8:0e:af:
         38:fb:47:2b:49:5b:dd:a7:b4:b9:7e:a4:49:4c:cc:48:7a:79:
         bc:5c:4d:0f:a3:a4:5c:ca:c4:6f:02:bc:d7:94:5a:8f:47:ef:
         65:12:bd:5a:b8:5f:af:ed:39:70:c3:2c:1a:ba:39:1d:55:17:
         c8:a5:31:bd:88:9a:84:4c:60:d8:9e:7b:25:49:ba:66:39:da:
         b6:85:c8:8e:d5:ba:3b:7e:18:7c:65:55:99:9d:79:95:5e:e7:
         03:74:fd:17:40:41:f0:1d:61:46:81:b3:39:1d:55:71:a2:3f:
         a1:87:59:aa:bf:48:4e:54:86:49:bb:ab:58:64:7c:89:19:7a:
         bf:dc:fc:4f:93:73:e2:7e:23:27:c4:a4:7c:ce:df:53:f9:ff:
         49:35:f3:aa:19:15:e7:5e:46:e5:f5:d2:bc:c8:8d:a5:bf:31:
         35:70:9d:00:0f:47:86:6b:0d:10:18:9c:1e:81:f1:27:a2:e0:
         e2:19:03:6f:89:40:70:00:50:5d:35:1e:80:f6:79:c1:d8:7f:
         0f:3f:e9:1f:2d:1b:36:93:c7:32:6c:d9:1d:e7:c2:a9:a8:b0:
         aa:dc:29:91:96:ed:32:2b:a1:10:6e:cf:2f:45:30:07:2f:ca:
         ee:a7:08:06:f9:25:85:77:10:2d:33:00:df:2a:83:b2:b8:c3:
         a4:74:9f:6a:7c:10:9d:05:33:4e:a9:fc:8c:16:71:a8:5a:5a:
         30:dc:74:fd:f2:aa:fb:d5:ca:17:cb:a7:79:f6:8f:57:22:66:
         3c:df:f2:14:4b:83:e4:59:c2:4f:ff:30:db:09:bc:ac:88:74:
         e4:10:4f:02:d5:2d:37:5f:b8:45:dd:23:b7:60:fe:66:61:fa:
         f7:6f:cf:2f:ab:58:82:1f:01:6a:ba:8d:6b:bc:c4:14:af:c7:
         8e:df:c3:82:87:39:4a:9d:5b:02:98:e7:f0:71:f9:c1:ff:ef:
         8a:83:1e:fa:73:12:fd:d0:46:ce:99:6b:f3:d9:2c:07:7c:63:
         6c:fd:69:63:0a:7c:7d:47:9a:fe:1a:d8:ac:5b:ad:e0:5b:a1:
         5c:a4:ad:fc:e2:26:4c:73:11:07:45:84:a5:da:d8:2f:1b:fa:
         79:25:be:9b:c1:25:42:4a:7c:e2:3c:53:15:60:49:54:0d:85:
         a1:e3:42:d5:48:b3:36:02:9f:d6:2a:f1:10:9d:eb:44:00:d4:
         f4:d8:05:7f:bd:1b:08:ee:91:b1:37:5c:01:f5:00:50:fc:10:
         a3:e7:94:e1:5e:25:bd:c1:e5:a7:7b:70:5d:75:f1:f1:31:ff:
         0a:09:14:b2:5b:66:e9:da
-----BEGIN CERTIFICATE-----
MIIFRDCCAyygAwIBAgIBBDANBgkqhkiG9w0BAQsFADCBmzELMAkGA1UEBhMCVVMx
EzARBgNVBAgMCkNhbGlmb3JuaWExETAPBgNVBAcMCFN0YW5mb3JkMQ0wCwYDVQQK
DARCTUlSMQ4wDAYDVQQLDAVDRURBUjEcMBoGA1UEAwwTbWV0YWRhdGFjZW50ZXIu
b3JneDEnMCUGCSqGSIb3DQEJARYYbWV0YWRhdGFjZW50ZXJAZ21haWwuY29tMB4X
DTE4MDYxMTIzMjcyNVoXDTI4MDYwODIzMjcyNVowgY0xCzAJBgNVBAYTAlVTMRMw
EQYDVQQIDApDYWxpZm9ybmlhMQ0wCwYDVQQKDARCTUlSMQ4wDAYDVQQLDAVDRURB
UjEhMB8GA1UEAwwYYXV0aC5tZXRhZGF0YWNlbnRlci5vcmd4MScwJQYJKoZIhvcN
AQkBFhhtZXRhZGF0YWNlbnRlckBnbWFpbC5jb20wggEiMA0GCSqGSIb3DQEBAQUA
A4IBDwAwggEKAoIBAQC6NiFHUlCx7wUE/sGap9f6Lztif0e8Wnoy18RQHZNO9tsd
osJI109Zos0NFFnmqkaaL12ztXZleBELhluR7pgBHHn4Elnq4Fjyfe4bpcNlfiTB
PrwNFlfQQ9yTsd22lD4dDW8gU/Yitw0BZrHYAOJKt7HxrKe1oIi+eAi5xJZP59k4
Sp68NYfYCk1cMLqLdi7QCW1lD0RLeOhXAsTqMV9CqhryYx8U9DBPV0B2dVETMOUI
h/OUt4AFP1VQlXkb+e3jx72Ny0t+fp4j4G/BU2fY8GrKx8i3K75c2lcIK7X/4z9c
t9PF41EYV0UceYivRA/aR2IYqdMTJxUkB0FO/jBJAgMBAAGjgZ4wgZswCQYDVR0T
BAIwADAsBglghkgBhvhCAQ0EHxYdT3BlblNTTCBHZW5lcmF0ZWQgQ2VydGlmaWNh
dGUwHQYDVR0OBBYEFBMVnCeF50XcwmNKsFiWQ7Z7eZGnMB8GA1UdIwQYMBaAFPun
I9NX5hfh2a/+cSyX4eqUXfzWMCAGA1UdEQQZMBeCFSoubWV0YWRhdGFjZW50ZXIu
b3JneDANBgkqhkiG9w0BAQsFAAOCAgEACDiDMSSKn6iTyO21jE4PqA6vOPtHK0lb
3ae0uX6kSUzMSHp5vFxND6OkXMrEbwK815Raj0fvZRK9Wrhfr+05cMMsGro5HVUX
yKUxvYiahExg2J57JUm6ZjnatoXIjtW6O34YfGVVmZ15lV7nA3T9F0BB8B1hRoGz
OR1VcaI/oYdZqr9ITlSGSburWGR8iRl6v9z8T5Nz4n4jJ8SkfM7fU/n/STXzqhkV
515G5fXSvMiNpb8xNXCdAA9HhmsNEBicHoHxJ6Lg4hkDb4lAcABQXTUegPZ5wdh/
Dz/pHy0bNpPHMmzZHefCqaiwqtwpkZbtMiuhEG7PL0UwBy/K7qcIBvklhXcQLTMA
3yqDsrjDpHSfanwQnQUzTqn8jBZxqFpaMNx0/fKq+9XKF8unefaPVyJmPN/yFEuD
5FnCT/8w2wm8rIh05BBPAtUtN1+4Rd0jt2D+ZmH692/PL6tYgh8BarqNa7zEFK/H
jt/Dgoc5Sp1bApjn8HH5wf/vioMe+nMS/dBGzplr89ksB3xjbP1pYwp8fUea/hrY
rFut4FuhXKSt/OImTHMRB0WEpdrYLxv6eSW+m8ElQkp84jxTFWBJVA2FoeNC1Uiz
NgKf1irxEJ3rRADU9NgFf70bCO6RsTdcAfUAUPwQo+eU4V4lvcHlp3twXXXx8TH/
CgkUsltm6do=
-----END CERTIFICATE-----
