Certificate:
    Data:
        Version: 3 (0x2)
        Serial Number: 19 (0x13)
        Signature Algorithm: sha256WithRSAEncryption
        Issuer: C=US, ST=CA, L=Stanford, O=BMIR, OU=CEDAR, CN=metadatacenter.orgx/emailAddress=metadatacenter@gmail.com
        Validity
            Not Before: Oct  6 06:50:16 2020 GMT
            Not After : Jan  8 06:50:16 2023 GMT
        Subject: C=US, ST=CA, O=BMIR, OU=CEDAR, CN=auth.metadatacenter.orgx/emailAddress=metadatacenter@gmail.com
        Subject Public Key Info:
            Public Key Algorithm: rsaEncryption
                RSA Public-Key: (2048 bit)
                Modulus:
                    00:b9:9e:63:04:e9:7e:a2:76:da:7f:c7:a7:f3:36:
                    44:77:5d:85:86:b1:9d:52:7e:11:1c:d3:5e:50:61:
                    ce:79:2d:b8:a0:d0:72:86:78:5a:8d:82:31:06:82:
                    5d:ff:62:27:22:ca:bb:ca:68:c8:f8:1a:fa:ec:3d:
                    dc:83:c5:72:86:24:c8:0d:e9:87:ba:bb:26:f4:9f:
                    6d:fe:c0:af:71:a5:32:9b:d4:73:a3:99:1e:b2:fd:
                    46:b0:e3:1b:35:2f:87:97:bd:0b:e2:8a:13:de:81:
                    c4:f4:e6:65:b7:43:db:44:f2:4e:aa:09:d2:83:22:
                    8f:38:bf:3e:b9:9f:7d:7c:3e:be:67:6b:84:22:5d:
                    39:48:c1:da:dc:29:cc:72:89:24:57:a2:90:c0:67:
                    a0:72:25:da:7d:43:2d:1f:82:a8:86:0f:e2:45:7d:
                    4b:06:0f:e0:49:c4:5e:89:93:92:c5:33:bf:5e:a9:
                    02:cc:03:e1:95:43:1b:8e:30:5f:3c:c0:d7:33:f5:
                    87:68:08:60:a7:c6:0f:53:ab:0b:a2:b2:12:72:e8:
                    3f:e2:74:2e:cd:38:36:24:82:63:ff:8f:fa:9e:a0:
                    54:dc:7e:6e:86:5a:10:f5:ad:a7:15:01:8b:28:2c:
                    ed:6b:25:17:ca:4f:e8:d5:1f:97:6b:a9:2f:bb:4d:
                    4c:4d
                Exponent: 65537 (0x10001)
        X509v3 extensions:
            X509v3 Basic Constraints: 
                CA:FALSE
            Netscape Comment: 
                OpenSSL Generated Certificate
            X509v3 Subject Key Identifier: 
                E1:51:B9:CC:10:7E:73:C3:EA:78:70:20:0F:DB:14:4F:A3:57:3C:DB
            X509v3 Authority Key Identifier: 
                keyid:77:A3:31:7A:29:2E:2A:3D:AA:26:93:C7:E1:8E:09:2E:30:88:0F:96

    Signature Algorithm: sha256WithRSAEncryption
         78:58:ca:fb:4f:de:c0:86:af:12:63:c9:1e:3b:9c:79:ff:e1:
         e5:9c:b8:4d:82:d4:ff:9f:c4:f1:ac:89:8a:42:d2:2d:88:b2:
         f6:8c:ae:f9:f9:7b:83:c8:17:78:ef:fe:88:30:18:3b:bb:e0:
         6e:71:ac:03:e1:aa:c4:d0:1e:b3:85:eb:9c:14:bf:84:ff:08:
         53:21:3e:f7:b4:66:cb:4b:d9:dd:86:b8:b0:a0:fe:cf:5f:ae:
         c2:d5:01:33:f2:1b:15:c6:45:4d:90:65:e4:03:fc:74:04:1c:
         6c:62:fb:4f:f4:27:af:0b:66:0f:ad:fa:34:37:c7:59:20:f8:
         9d:14:97:2c:9e:19:1e:ff:33:8f:bb:ae:91:55:67:78:79:7b:
         9e:53:06:8a:16:9f:e3:05:0c:63:8e:e3:b7:e9:bf:ce:08:d1:
         69:d7:b2:7d:dd:ff:d6:3d:6c:e8:2e:e8:68:f6:79:7f:58:c8:
         7e:8b:2d:ef:d8:2b:c0:e4:74:d3:87:11:03:dc:b2:ee:7f:87:
         8c:ed:a1:d2:d3:6b:8a:23:4b:70:ab:fc:3a:16:2c:18:39:46:
         20:1f:84:96:a1:dd:e5:e7:b7:7e:fe:11:05:04:10:87:d3:1d:
         38:89:ce:e6:4f:57:f5:0d:ce:9c:55:a8:c4:4c:7e:a3:88:f7:
         7b:1b:ba:b4:b4:b6:47:99:7f:49:5c:89:2e:52:7c:af:14:f0:
         a3:fb:30:3c:3c:98:dc:9f:3e:cd:1d:a1:33:a7:ea:d2:a4:de:
         09:68:d3:d6:30:fe:6a:46:c8:b5:19:db:a5:8f:4a:95:b7:bd:
         8e:d6:1a:0c:72:2c:be:d5:eb:d7:85:72:b4:bd:c8:ef:6f:59:
         18:8a:5e:9a:b7:c4:e0:07:ac:f3:7a:67:68:a4:77:f1:c7:ec:
         d7:60:c5:bb:3c:81:a5:aa:75:75:bc:a2:73:f7:28:9c:e9:44:
         c5:30:9a:ed:56:ea:2f:56:4d:7a:b0:02:e3:b3:b3:31:66:79:
         83:8a:a5:4e:62:61:54:ad:98:e2:04:ad:95:ef:02:c6:43:09:
         45:9c:57:c0:7e:a8:35:4a:95:86:b7:e3:56:ae:a9:f3:df:86:
         89:c4:89:0f:00:88:8d:77:12:ee:84:9d:70:18:04:44:47:82:
         7c:35:2a:a9:0a:ca:1e:3d:80:54:96:8c:13:cd:91:a1:13:68:
         97:b6:97:e9:2c:e0:31:a5:2d:5a:f4:7a:a1:ca:0b:8f:d1:2d:
         6b:e8:fd:9b:fe:d8:7d:02:9d:3b:2f:f6:76:77:37:7e:b4:2a:
         97:33:19:23:8f:0a:f4:eb:fa:de:c6:d9:ab:ee:43:99:0a:e1:
         ef:ba:c7:52:68:a2:8d:dc
-----BEGIN CERTIFICATE-----
MIIFEDCCAvigAwIBAgIBEzANBgkqhkiG9w0BAQsFADCBkzELMAkGA1UEBhMCVVMx
CzAJBgNVBAgMAkNBMREwDwYDVQQHDAhTdGFuZm9yZDENMAsGA1UECgwEQk1JUjEO
MAwGA1UECwwFQ0VEQVIxHDAaBgNVBAMME21ldGFkYXRhY2VudGVyLm9yZ3gxJzAl
BgkqhkiG9w0BCQEWGG1ldGFkYXRhY2VudGVyQGdtYWlsLmNvbTAeFw0yMDEwMDYw
NjUwMTZaFw0yMzAxMDgwNjUwMTZaMIGFMQswCQYDVQQGEwJVUzELMAkGA1UECAwC
Q0ExDTALBgNVBAoMBEJNSVIxDjAMBgNVBAsMBUNFREFSMSEwHwYDVQQDDBhhdXRo
Lm1ldGFkYXRhY2VudGVyLm9yZ3gxJzAlBgkqhkiG9w0BCQEWGG1ldGFkYXRhY2Vu
dGVyQGdtYWlsLmNvbTCCASIwDQYJKoZIhvcNAQEBBQADggEPADCCAQoCggEBALme
YwTpfqJ22n/Hp/M2RHddhYaxnVJ+ERzTXlBhznktuKDQcoZ4Wo2CMQaCXf9iJyLK
u8poyPga+uw93IPFcoYkyA3ph7q7JvSfbf7Ar3GlMpvUc6OZHrL9RrDjGzUvh5e9
C+KKE96BxPTmZbdD20TyTqoJ0oMijzi/PrmffXw+vmdrhCJdOUjB2twpzHKJJFei
kMBnoHIl2n1DLR+CqIYP4kV9SwYP4EnEXomTksUzv16pAswD4ZVDG44wXzzA1zP1
h2gIYKfGD1OrC6KyEnLoP+J0Ls04NiSCY/+P+p6gVNx+boZaEPWtpxUBiygs7Wsl
F8pP6NUfl2upL7tNTE0CAwEAAaN7MHkwCQYDVR0TBAIwADAsBglghkgBhvhCAQ0E
HxYdT3BlblNTTCBHZW5lcmF0ZWQgQ2VydGlmaWNhdGUwHQYDVR0OBBYEFOFRucwQ
fnPD6nhwIA/bFE+jVzzbMB8GA1UdIwQYMBaAFHejMXopLio9qiaTx+GOCS4wiA+W
MA0GCSqGSIb3DQEBCwUAA4ICAQB4WMr7T97Ahq8SY8keO5x5/+HlnLhNgtT/n8Tx
rImKQtItiLL2jK75+XuDyBd47/6IMBg7u+BucawD4arE0B6zheucFL+E/whTIT73
tGbLS9ndhriwoP7PX67C1QEz8hsVxkVNkGXkA/x0BBxsYvtP9CevC2YPrfo0N8dZ
IPidFJcsnhke/zOPu66RVWd4eXueUwaKFp/jBQxjjuO36b/OCNFp17J93f/WPWzo
Luho9nl/WMh+iy3v2CvA5HTThxED3LLuf4eM7aHS02uKI0twq/w6FiwYOUYgH4SW
od3l57d+/hEFBBCH0x04ic7mT1f1Dc6cVajETH6jiPd7G7q0tLZHmX9JXIkuUnyv
FPCj+zA8PJjcnz7NHaEzp+rSpN4JaNPWMP5qRsi1Gdulj0qVt72O1hoMciy+1evX
hXK0vcjvb1kYil6at8TgB6zzemdopHfxx+zXYMW7PIGlqnV1vKJz9yic6UTFMJrt
VuovVk16sALjs7MxZnmDiqVOYmFUrZjiBK2V7wLGQwlFnFfAfqg1SpWGt+NWrqnz
34aJxIkPAIiNdxLuhJ1wGARER4J8NSqpCsoePYBUlowTzZGhE2iXtpfpLOAxpS1a
9HqhyguP0S1r6P2b/th9Ap07L/Z2dzd+tCqXMxkjjwr06/rextmr7kOZCuHvusdS
aKKN3A==
-----END CERTIFICATE-----
