Certificate:
    Data:
        Version: 3 (0x2)
        Serial Number: 5 (0x5)
        Signature Algorithm: sha256WithRSAEncryption
        Issuer: C=US, ST=CA, L=Stanford, O=BMIR, OU=CEDAR, CN=metadatacenter.orgx/emailAddress=metadatacenter@gmail.com
        Validity
            Not Before: Oct  6 00:18:05 2020 GMT
            Not After : Jan  8 00:18:05 2023 GMT
        Subject: C=US, ST=CA, O=BMIR, OU=CEDAR, CN=internals.metadatacenter.orgx/emailAddress=metadatacenter@gmail.com
        Subject Public Key Info:
            Public Key Algorithm: rsaEncryption
                RSA Public-Key: (2048 bit)
                Modulus:
                    00:c7:20:0b:62:57:ef:48:bf:3f:f6:75:7b:d6:18:
                    08:8a:cf:6d:5d:e5:d2:9b:4a:cc:fc:ba:3b:82:03:
                    98:a5:9e:62:e5:05:21:41:14:9c:0d:11:92:8c:9a:
                    c4:7f:0f:77:09:21:b7:9e:ee:30:bf:15:f8:9b:91:
                    2d:be:68:f1:a9:c7:2d:0c:33:77:f8:35:6b:5f:ac:
                    1b:9d:22:3c:83:d5:ec:54:bf:66:26:30:7b:f0:80:
                    e4:18:94:e8:bc:97:2b:fd:d7:f8:d4:dd:06:5e:36:
                    88:28:4b:c6:62:a8:01:bd:49:d8:de:e1:3e:e0:95:
                    28:90:f5:ae:27:45:93:cb:22:4c:73:73:90:ea:6f:
                    19:ff:1d:ec:88:ca:36:a1:a2:5e:b5:d7:df:a0:ef:
                    27:65:c9:58:29:df:fc:9a:ee:7d:b8:05:c5:99:3d:
                    d2:a1:cf:7e:a3:36:85:44:6e:26:50:36:a0:23:0d:
                    bf:7a:2f:19:bc:d2:e1:54:15:95:b8:44:c5:a2:49:
                    21:78:33:45:51:f1:a6:ea:28:47:1e:bf:f0:5d:2c:
                    3f:61:9f:e4:36:90:2f:55:07:e7:5e:1a:82:b7:f2:
                    9e:30:9a:08:5a:95:0c:c6:dd:73:d3:43:4e:b8:c3:
                    67:49:b0:bd:7a:1c:af:70:6c:3e:4b:8c:c0:1b:02:
                    24:27
                Exponent: 65537 (0x10001)
        X509v3 extensions:
            X509v3 Basic Constraints: 
                CA:FALSE
            Netscape Comment: 
                OpenSSL Generated Certificate
            X509v3 Subject Key Identifier: 
                AE:F3:81:67:5C:B0:91:6F:34:AB:D2:18:EC:F7:33:77:65:ED:8B:28
            X509v3 Authority Key Identifier: 
                keyid:77:A3:31:7A:29:2E:2A:3D:AA:26:93:C7:E1:8E:09:2E:30:88:0F:96

    Signature Algorithm: sha256WithRSAEncryption
         cb:2f:e4:0b:39:7b:19:c9:6f:60:48:55:df:e3:a1:83:2a:2c:
         f8:30:55:b0:2f:a9:3b:03:8c:ad:a1:9f:87:eb:3b:3a:03:9f:
         50:07:0c:41:eb:e4:a4:ae:af:8a:63:c6:1c:b1:f5:85:0e:2e:
         9b:23:f8:af:07:dd:2a:a8:4d:7f:0f:91:f5:64:99:e0:d8:b2:
         f6:86:aa:72:1b:4a:38:85:7d:2e:38:d3:a8:86:3f:51:c6:f4:
         20:67:b0:ad:75:21:21:a5:ed:01:b8:1a:b1:96:48:bb:ce:6d:
         54:ed:44:c1:0a:b5:d4:b2:b1:b2:01:9c:f9:0b:32:cd:c6:e6:
         ce:8f:34:2c:e4:46:d4:f2:29:31:bb:bd:e3:f6:8e:e0:3f:55:
         f1:aa:c7:c7:6a:68:30:b6:24:a5:75:a1:e6:5c:1d:0b:df:24:
         5f:a7:35:eb:bf:6c:dd:0e:41:04:1e:5c:87:21:10:ea:db:76:
         2f:c0:17:ad:42:11:75:b9:e1:0c:4b:69:47:b5:31:98:99:5f:
         23:a3:24:be:e6:b1:f9:5b:39:4f:53:48:fb:35:d4:aa:c9:cc:
         7b:47:6a:59:4a:95:93:8c:37:dc:c9:2a:88:ae:64:1c:fb:e6:
         f9:a4:5f:b7:fa:81:ce:c6:39:f0:ae:90:77:d0:b4:d0:c5:27:
         68:68:3c:c4:16:82:9a:af:eb:51:a4:4e:13:9d:6f:55:ec:89:
         b7:69:46:84:3b:8e:8d:19:e9:5c:c8:a4:53:25:4e:f1:15:ac:
         c3:06:27:e4:1f:e4:21:cf:be:fe:1f:49:73:cb:11:d9:88:de:
         39:44:34:9c:95:39:b0:7a:f4:fe:81:18:67:83:30:f0:7d:03:
         62:39:dd:2d:f5:a2:3a:cf:30:71:a6:fc:c4:83:bc:4d:0b:14:
         1b:b6:ea:af:40:33:25:48:ad:83:a3:75:d5:1f:66:16:eb:3e:
         72:39:c5:b3:05:48:9e:40:f2:ad:cf:e2:c8:83:ae:2b:eb:fc:
         c1:6f:27:44:16:d4:d6:d2:fc:f0:89:00:b0:e9:21:b5:5d:02:
         67:c8:f8:28:35:d4:26:2e:e0:84:74:4c:02:25:61:84:25:fd:
         46:c5:10:34:7f:ac:7d:f1:7e:a7:5e:cf:77:c1:c5:f5:39:d2:
         18:fc:a3:3e:3a:7a:ce:fe:d5:bb:18:8d:b4:81:bc:87:a5:ef:
         d3:a5:b6:c8:0b:d6:92:50:73:49:d4:06:1f:f8:53:2e:58:79:
         f0:37:61:54:df:52:37:f1:f2:e2:b5:06:3b:d8:fc:16:14:3c:
         b0:96:5b:81:54:e3:81:45:00:d3:33:8e:05:fb:64:4c:9c:fa:
         38:d5:b3:18:57:1a:43:32
-----BEGIN CERTIFICATE-----
MIIFFTCCAv2gAwIBAgIBBTANBgkqhkiG9w0BAQsFADCBkzELMAkGA1UEBhMCVVMx
CzAJBgNVBAgMAkNBMREwDwYDVQQHDAhTdGFuZm9yZDENMAsGA1UECgwEQk1JUjEO
MAwGA1UECwwFQ0VEQVIxHDAaBgNVBAMME21ldGFkYXRhY2VudGVyLm9yZ3gxJzAl
BgkqhkiG9w0BCQEWGG1ldGFkYXRhY2VudGVyQGdtYWlsLmNvbTAeFw0yMDEwMDYw
MDE4MDVaFw0yMzAxMDgwMDE4MDVaMIGKMQswCQYDVQQGEwJVUzELMAkGA1UECAwC
Q0ExDTALBgNVBAoMBEJNSVIxDjAMBgNVBAsMBUNFREFSMSYwJAYDVQQDDB1pbnRl
cm5hbHMubWV0YWRhdGFjZW50ZXIub3JneDEnMCUGCSqGSIb3DQEJARYYbWV0YWRh
dGFjZW50ZXJAZ21haWwuY29tMIIBIjANBgkqhkiG9w0BAQEFAAOCAQ8AMIIBCgKC
AQEAxyALYlfvSL8/9nV71hgIis9tXeXSm0rM/Lo7ggOYpZ5i5QUhQRScDRGSjJrE
fw93CSG3nu4wvxX4m5EtvmjxqcctDDN3+DVrX6wbnSI8g9XsVL9mJjB78IDkGJTo
vJcr/df41N0GXjaIKEvGYqgBvUnY3uE+4JUokPWuJ0WTyyJMc3OQ6m8Z/x3siMo2
oaJetdffoO8nZclYKd/8mu59uAXFmT3Soc9+ozaFRG4mUDagIw2/ei8ZvNLhVBWV
uETFokkheDNFUfGm6ihHHr/wXSw/YZ/kNpAvVQfnXhqCt/KeMJoIWpUMxt1z00NO
uMNnSbC9ehyvcGw+S4zAGwIkJwIDAQABo3sweTAJBgNVHRMEAjAAMCwGCWCGSAGG
+EIBDQQfFh1PcGVuU1NMIEdlbmVyYXRlZCBDZXJ0aWZpY2F0ZTAdBgNVHQ4EFgQU
rvOBZ1ywkW80q9IY7Pczd2XtiygwHwYDVR0jBBgwFoAUd6MxeikuKj2qJpPH4Y4J
LjCID5YwDQYJKoZIhvcNAQELBQADggIBAMsv5As5exnJb2BIVd/joYMqLPgwVbAv
qTsDjK2hn4frOzoDn1AHDEHr5KSur4pjxhyx9YUOLpsj+K8H3SqoTX8PkfVkmeDY
svaGqnIbSjiFfS4406iGP1HG9CBnsK11ISGl7QG4GrGWSLvObVTtRMEKtdSysbIB
nPkLMs3G5s6PNCzkRtTyKTG7veP2juA/VfGqx8dqaDC2JKV1oeZcHQvfJF+nNeu/
bN0OQQQeXIchEOrbdi/AF61CEXW54QxLaUe1MZiZXyOjJL7msflbOU9TSPs11KrJ
zHtHallKlZOMN9zJKoiuZBz75vmkX7f6gc7GOfCukHfQtNDFJ2hoPMQWgpqv61Gk
ThOdb1XsibdpRoQ7jo0Z6VzIpFMlTvEVrMMGJ+Qf5CHPvv4fSXPLEdmI3jlENJyV
ObB69P6BGGeDMPB9A2I53S31ojrPMHGm/MSDvE0LFBu26q9AMyVIrYOjddUfZhbr
PnI5xbMFSJ5A8q3P4siDrivr/MFvJ0QW1NbS/PCJALDpIbVdAmfI+Cg11CYu4IR0
TAIlYYQl/UbFEDR/rH3xfqdez3fBxfU50hj8oz46es7+1bsYjbSBvIel79OltsgL
1pJQc0nUBh/4Uy5YefA3YVTfUjfx8uK1BjvY/BYUPLCWW4FU44FFANMzjgX7ZEyc
+jjVsxhXGkMy
-----END CERTIFICATE-----
