Certificate:
    Data:
        Version: 3 (0x2)
        Serial Number: 6 (0x6)
        Signature Algorithm: sha256WithRSAEncryption
        Issuer: C=US, ST=CA, L=Stanford, O=BMIR, OU=CEDAR, CN=metadatacenter.orgx/emailAddress=metadatacenter@gmail.com
        Validity
            Not Before: Oct  6 00:22:39 2020 GMT
            Not After : Jan  8 00:22:39 2023 GMT
        Subject: C=US, ST=CA, O=BMIR, OU=CEDAR, CN=messaging.metadatacenter.orgx/emailAddress=metadatacenter@gmail.com
        Subject Public Key Info:
            Public Key Algorithm: rsaEncryption
                RSA Public-Key: (2048 bit)
                Modulus:
                    00:c5:d0:89:28:af:3e:ad:d5:35:52:cf:38:3d:e8:
                    c3:cf:95:ab:ed:7d:09:bb:da:d6:06:95:3d:11:31:
                    d4:aa:8b:43:46:e0:94:c7:46:6f:55:e6:61:1b:bd:
                    48:5d:9a:b0:eb:07:7b:0c:f1:69:99:d1:aa:1b:b6:
                    61:8d:d7:a7:0d:d5:64:ea:54:89:e4:a9:90:26:21:
                    73:d9:9b:2c:1b:4d:33:40:64:24:10:57:ee:c7:14:
                    aa:4e:63:93:02:3b:9a:b2:4d:66:cd:37:b8:4a:ff:
                    03:87:79:67:f2:68:34:0a:a0:5c:c0:bf:1a:15:02:
                    97:c5:2a:6b:90:c6:15:18:7b:1b:b9:f8:57:26:5e:
                    d0:e5:d6:ff:25:ec:8d:72:62:df:ad:b9:80:96:c5:
                    3a:94:9a:1f:3c:24:7b:7d:f4:d5:e1:74:77:a7:f2:
                    af:f3:bf:a5:f6:d8:87:66:c1:59:81:2c:e0:a4:39:
                    a7:52:8a:c6:9a:9d:c9:a3:d2:54:81:89:be:dc:68:
                    28:27:cd:57:d0:7f:bf:6a:74:10:07:6d:78:60:28:
                    7c:95:a9:54:aa:f2:e0:f8:4c:5c:eb:aa:e3:9d:73:
                    67:9a:c8:06:d8:36:99:c3:1e:19:53:6f:6f:b4:72:
                    98:c0:17:05:80:42:4c:6d:6e:ae:9c:6e:d5:de:a1:
                    61:bb
                Exponent: 65537 (0x10001)
        X509v3 extensions:
            X509v3 Basic Constraints: 
                CA:FALSE
            Netscape Comment: 
                OpenSSL Generated Certificate
            X509v3 Subject Key Identifier: 
                3F:75:4E:D5:5C:5D:D8:D9:C6:C3:4E:A6:B6:10:79:B8:E2:68:4E:AF
            X509v3 Authority Key Identifier: 
                keyid:77:A3:31:7A:29:2E:2A:3D:AA:26:93:C7:E1:8E:09:2E:30:88:0F:96

    Signature Algorithm: sha256WithRSAEncryption
         c7:25:72:70:ea:8e:0d:5c:25:bc:86:f8:70:e5:24:0a:3a:86:
         c8:43:2e:fc:7e:0b:7e:4f:f1:d4:7c:22:98:c2:aa:3e:55:bf:
         d4:f8:10:2b:c4:c1:c5:af:55:ac:69:7f:ca:8a:ff:eb:2d:fd:
         f1:b4:9b:23:00:09:f4:96:f7:e3:38:33:0b:83:c1:97:63:16:
         d3:9f:1b:4f:5f:dc:bf:c3:63:a1:ac:0c:cd:ba:50:31:0a:24:
         ee:a5:a6:68:64:e5:43:61:8b:e2:21:51:38:2d:bd:20:fe:96:
         89:e0:e2:97:2a:c6:af:bb:04:1e:c8:62:30:07:53:7c:dd:ab:
         d9:5d:4d:8c:c8:7e:2e:2d:16:64:6d:43:b0:43:ee:a9:0f:6e:
         da:85:e9:e8:e6:76:41:47:76:01:bf:d2:88:5b:29:46:5c:35:
         08:46:4c:bb:78:c6:ff:9e:59:a6:f9:c8:ba:a1:62:6a:cc:c4:
         ca:10:8a:3d:0f:5a:49:76:c8:03:69:5f:06:df:c9:e0:9f:d5:
         f3:70:0b:04:83:fd:50:c6:37:ca:c9:cb:72:e9:cd:d1:fb:79:
         15:c0:b7:3a:b5:d7:54:3d:a8:75:8e:eb:e0:f5:fe:40:c6:e9:
         b4:f9:00:d5:2f:72:e3:6a:bf:a5:07:b6:4e:01:30:76:8e:3f:
         2d:17:9d:98:85:fb:70:21:8b:95:f8:f9:e2:11:98:86:cc:21:
         11:0d:24:d9:83:b3:6b:96:41:7b:24:a1:ac:41:20:fd:8b:68:
         4c:12:c1:6d:54:6e:10:fd:0e:5a:a0:41:92:61:9a:1e:44:4c:
         16:07:85:b6:a8:bf:a4:32:c1:fc:55:a9:89:91:7a:66:d5:91:
         62:f2:7b:09:16:88:78:ac:cc:62:d1:35:a3:9a:b7:e9:e5:cb:
         13:71:01:4e:3e:3a:d7:1a:c2:7c:3a:db:9b:7a:9e:8c:cc:6c:
         e3:da:5d:c0:76:4e:c2:d2:e4:e0:97:4a:53:1b:65:a3:4e:7a:
         d8:10:1d:c2:86:66:63:f5:17:43:aa:51:d3:09:f2:8d:fc:19:
         41:84:d7:0e:7d:46:63:25:7f:a8:48:e9:dc:c9:71:94:8d:66:
         44:a4:c4:10:d9:40:0b:4d:51:f7:d5:9a:78:ca:d7:4e:90:c7:
         8a:1f:72:0e:80:10:df:35:eb:5c:a2:a5:4e:3b:2c:1a:e2:16:
         23:c9:06:41:c3:9f:06:2a:8f:2d:bc:aa:f8:e6:22:b8:50:2b:
         18:7d:db:59:a2:30:01:a8:0c:e2:ec:fc:f5:35:ea:2d:ca:f7:
         b0:ca:58:de:d3:79:e5:11:ce:b5:00:a2:95:fd:a1:e4:18:35:
         79:77:7e:30:2e:bf:11:da
-----BEGIN CERTIFICATE-----
MIIFFTCCAv2gAwIBAgIBBjANBgkqhkiG9w0BAQsFADCBkzELMAkGA1UEBhMCVVMx
CzAJBgNVBAgMAkNBMREwDwYDVQQHDAhTdGFuZm9yZDENMAsGA1UECgwEQk1JUjEO
MAwGA1UECwwFQ0VEQVIxHDAaBgNVBAMME21ldGFkYXRhY2VudGVyLm9yZ3gxJzAl
BgkqhkiG9w0BCQEWGG1ldGFkYXRhY2VudGVyQGdtYWlsLmNvbTAeFw0yMDEwMDYw
MDIyMzlaFw0yMzAxMDgwMDIyMzlaMIGKMQswCQYDVQQGEwJVUzELMAkGA1UECAwC
Q0ExDTALBgNVBAoMBEJNSVIxDjAMBgNVBAsMBUNFREFSMSYwJAYDVQQDDB1tZXNz
YWdpbmcubWV0YWRhdGFjZW50ZXIub3JneDEnMCUGCSqGSIb3DQEJARYYbWV0YWRh
dGFjZW50ZXJAZ21haWwuY29tMIIBIjANBgkqhkiG9w0BAQEFAAOCAQ8AMIIBCgKC
AQEAxdCJKK8+rdU1Us84PejDz5Wr7X0Ju9rWBpU9ETHUqotDRuCUx0ZvVeZhG71I
XZqw6wd7DPFpmdGqG7ZhjdenDdVk6lSJ5KmQJiFz2ZssG00zQGQkEFfuxxSqTmOT
Ajuask1mzTe4Sv8Dh3ln8mg0CqBcwL8aFQKXxSprkMYVGHsbufhXJl7Q5db/JeyN
cmLfrbmAlsU6lJofPCR7ffTV4XR3p/Kv87+l9tiHZsFZgSzgpDmnUorGmp3Jo9JU
gYm+3GgoJ81X0H+/anQQB214YCh8lalUqvLg+Exc66rjnXNnmsgG2DaZwx4ZU29v
tHKYwBcFgEJMbW6unG7V3qFhuwIDAQABo3sweTAJBgNVHRMEAjAAMCwGCWCGSAGG
+EIBDQQfFh1PcGVuU1NMIEdlbmVyYXRlZCBDZXJ0aWZpY2F0ZTAdBgNVHQ4EFgQU
P3VO1Vxd2NnGw06mthB5uOJoTq8wHwYDVR0jBBgwFoAUd6MxeikuKj2qJpPH4Y4J
LjCID5YwDQYJKoZIhvcNAQELBQADggIBAMclcnDqjg1cJbyG+HDlJAo6hshDLvx+
C35P8dR8IpjCqj5Vv9T4ECvEwcWvVaxpf8qK/+st/fG0myMACfSW9+M4MwuDwZdj
FtOfG09f3L/DY6GsDM26UDEKJO6lpmhk5UNhi+IhUTgtvSD+long4pcqxq+7BB7I
YjAHU3zdq9ldTYzIfi4tFmRtQ7BD7qkPbtqF6ejmdkFHdgG/0ohbKUZcNQhGTLt4
xv+eWab5yLqhYmrMxMoQij0PWkl2yANpXwbfyeCf1fNwCwSD/VDGN8rJy3LpzdH7
eRXAtzq111Q9qHWO6+D1/kDG6bT5ANUvcuNqv6UHtk4BMHaOPy0XnZiF+3Ahi5X4
+eIRmIbMIRENJNmDs2uWQXskoaxBIP2LaEwSwW1UbhD9DlqgQZJhmh5ETBYHhbao
v6QywfxVqYmRembVkWLyewkWiHiszGLRNaOat+nlyxNxAU4+Otcawnw625t6nozM
bOPaXcB2TsLS5OCXSlMbZaNOetgQHcKGZmP1F0OqUdMJ8o38GUGE1w59RmMlf6hI
6dzJcZSNZkSkxBDZQAtNUffVmnjK106Qx4ofcg6AEN8161yipU47LBriFiPJBkHD
nwYqjy28qvjmIrhQKxh921miMAGoDOLs/PU16i3K97DKWN7TeeURzrUAopX9oeQY
NXl3fjAuvxHa
-----END CERTIFICATE-----
