Certificate:
    Data:
        Version: 3 (0x2)
        Serial Number: 7 (0x7)
    Signature Algorithm: sha256WithRSAEncryption
        Issuer: C=US, ST=California, L=Stanford, O=BMIR, OU=CEDAR, CN=metadatacenter.orgx/emailAddress=metadatacenter@gmail.com
        Validity
            Not Before: Jun 11 23:30:18 2018 GMT
            Not After : Jun  8 23:30:18 2028 GMT
        Subject: C=US, ST=California, O=BMIR, OU=CEDAR, CN=messaging.metadatacenter.orgx/emailAddress=metadatacenter@gmail.com
        Subject Public Key Info:
            Public Key Algorithm: rsaEncryption
                Public-Key: (2048 bit)
                Modulus:
                    00:c6:91:5b:58:06:21:a8:85:80:da:ba:9c:01:df:
                    c6:dc:2b:1c:92:64:18:50:9e:d9:1b:57:d7:a2:59:
                    20:a0:31:0a:88:c1:c5:85:f6:f6:4f:51:89:e7:32:
                    84:19:3a:ba:fd:6d:0a:ca:c5:07:e6:0e:e2:65:c6:
                    14:77:6f:0c:eb:f2:e3:13:7b:21:b8:92:e3:b6:eb:
                    05:72:36:db:de:12:26:27:0e:95:37:ca:9a:25:83:
                    78:90:de:42:65:62:8a:8b:3a:2b:42:6b:fc:fe:c6:
                    b5:4a:c9:f9:d8:11:ee:14:cd:77:63:9b:26:e1:65:
                    49:33:5b:30:07:aa:6b:27:df:a3:00:a9:60:7f:30:
                    5a:70:8d:23:f1:6c:b7:17:ca:1d:9b:8f:d4:f7:29:
                    54:f5:98:1d:c1:f9:9e:da:b4:b4:86:2b:7e:f7:ba:
                    43:da:bd:db:ea:f8:bb:bf:74:b5:f9:ee:8b:45:af:
                    a2:c1:59:fe:55:5d:e8:76:df:7f:04:7f:d1:86:db:
                    86:7a:62:ab:b8:72:5b:22:49:84:1a:67:1d:ef:ca:
                    0f:7e:aa:1d:3e:0c:7b:93:af:ee:9f:ba:49:6b:5a:
                    a1:31:4b:41:03:95:fe:7d:c0:e2:ff:4f:7b:ab:9c:
                    64:9e:dc:d0:39:b5:40:20:08:e7:a4:96:a6:08:56:
                    55:cb
                Exponent: 65537 (0x10001)
        X509v3 extensions:
            X509v3 Basic Constraints: 
                CA:FALSE
            Netscape Comment: 
                OpenSSL Generated Certificate
            X509v3 Subject Key Identifier: 
                04:80:D4:ED:61:DC:61:62:E3:68:85:52:BC:7D:DF:AD:4E:8B:B1:13
            X509v3 Authority Key Identifier: 
                keyid:FB:A7:23:D3:57:E6:17:E1:D9:AF:FE:71:2C:97:E1:EA:94:5D:FC:D6

            X509v3 Subject Alternative Name: 
                DNS:*.metadatacenter.orgx
    Signature Algorithm: sha256WithRSAEncryption
         9d:f5:f6:f3:5b:cb:eb:3c:e2:55:6c:9f:db:28:21:2a:f3:25:
         9d:48:73:dd:57:8f:bd:0e:46:0f:ae:6a:ee:70:97:ca:7f:e5:
         70:79:0f:28:b9:25:ae:24:ad:77:ca:4e:d8:a0:b6:3f:b5:e3:
         9e:b8:9a:42:53:5e:2a:8d:7d:8a:fb:47:24:7f:aa:30:4f:6d:
         c4:70:63:d1:24:a6:04:67:cc:92:7e:18:2e:5b:e0:59:ff:c2:
         64:a7:16:81:ee:84:13:06:0b:cc:da:89:10:35:c8:e7:9c:61:
         03:1f:63:e3:79:05:41:39:b8:f6:ef:37:b8:e4:44:20:ac:7e:
         ae:26:88:27:4e:e2:43:c3:4f:44:7f:27:58:68:2a:b3:f2:54:
         30:be:1a:1f:09:59:ee:93:db:fa:02:ea:db:a4:c7:2a:a5:b7:
         8b:4a:a3:4f:cd:4c:2f:48:ec:48:c8:0a:cf:a9:d7:ef:04:53:
         91:a7:02:46:f3:94:cd:7d:3d:ae:f7:4e:c1:83:1e:1e:61:14:
         32:0a:29:b3:db:33:0f:79:4a:19:ec:cd:45:87:fd:33:20:a2:
         77:b4:a9:74:36:62:43:6a:11:e7:e9:0b:84:f6:29:e6:89:ef:
         15:4b:80:cd:5f:ce:4d:e8:ef:52:7f:6e:3f:d7:73:10:76:63:
         5e:14:0b:e7:22:b4:28:3b:4a:cb:1b:31:ea:1a:18:49:c8:50:
         c4:44:1d:2e:96:62:b4:49:e7:7f:f1:82:b1:4b:f1:c3:f1:62:
         8c:39:dc:97:08:96:88:09:58:ae:5c:19:db:63:c2:2d:35:4f:
         d2:c8:c5:1c:2a:2a:39:59:18:4c:f2:4a:5b:01:75:f1:68:3d:
         7f:14:9f:31:ad:d3:3d:eb:c0:62:83:20:91:bb:fe:22:7c:6f:
         28:13:3d:7a:a3:3d:c1:b6:95:a1:ae:89:4c:f4:22:75:fb:f4:
         b3:b4:18:c2:af:79:55:6b:44:c8:bb:b2:d8:97:e1:96:30:d4:
         f3:34:04:d8:7b:85:72:57:cb:55:cd:ba:75:7f:f8:a3:75:62:
         96:19:1a:04:e8:ee:17:22:da:65:37:e4:79:4f:18:f2:b4:1b:
         5c:32:04:69:89:2b:42:b6:a7:81:b0:18:db:c8:c5:eb:65:df:
         4a:bd:97:8e:a2:4b:31:00:eb:b1:47:d9:fe:77:95:10:21:8f:
         e6:36:81:e0:d2:06:dc:48:5a:d3:d2:6f:f1:fa:79:04:67:ad:
         39:8e:db:e3:42:1d:91:97:c6:5e:54:da:97:d6:9f:e8:66:7f:
         3a:6b:92:bc:91:9a:e5:f0:f4:d2:06:d9:58:16:a8:6d:2d:75:
         9d:ff:3a:46:37:55:52:cc
-----BEGIN CERTIFICATE-----
MIIFSTCCAzGgAwIBAgIBBzANBgkqhkiG9w0BAQsFADCBmzELMAkGA1UEBhMCVVMx
EzARBgNVBAgMCkNhbGlmb3JuaWExETAPBgNVBAcMCFN0YW5mb3JkMQ0wCwYDVQQK
DARCTUlSMQ4wDAYDVQQLDAVDRURBUjEcMBoGA1UEAwwTbWV0YWRhdGFjZW50ZXIu
b3JneDEnMCUGCSqGSIb3DQEJARYYbWV0YWRhdGFjZW50ZXJAZ21haWwuY29tMB4X
DTE4MDYxMTIzMzAxOFoXDTI4MDYwODIzMzAxOFowgZIxCzAJBgNVBAYTAlVTMRMw
EQYDVQQIDApDYWxpZm9ybmlhMQ0wCwYDVQQKDARCTUlSMQ4wDAYDVQQLDAVDRURB
UjEmMCQGA1UEAwwdbWVzc2FnaW5nLm1ldGFkYXRhY2VudGVyLm9yZ3gxJzAlBgkq
hkiG9w0BCQEWGG1ldGFkYXRhY2VudGVyQGdtYWlsLmNvbTCCASIwDQYJKoZIhvcN
AQEBBQADggEPADCCAQoCggEBAMaRW1gGIaiFgNq6nAHfxtwrHJJkGFCe2RtX16JZ
IKAxCojBxYX29k9RiecyhBk6uv1tCsrFB+YO4mXGFHdvDOvy4xN7IbiS47brBXI2
294SJicOlTfKmiWDeJDeQmViios6K0Jr/P7GtUrJ+dgR7hTNd2ObJuFlSTNbMAeq
ayffowCpYH8wWnCNI/FstxfKHZuP1PcpVPWYHcH5ntq0tIYrfve6Q9q92+r4u790
tfnui0WvosFZ/lVd6HbffwR/0Ybbhnpiq7hyWyJJhBpnHe/KD36qHT4Me5Ov7p+6
SWtaoTFLQQOV/n3A4v9Pe6ucZJ7c0Dm1QCAI56SWpghWVcsCAwEAAaOBnjCBmzAJ
BgNVHRMEAjAAMCwGCWCGSAGG+EIBDQQfFh1PcGVuU1NMIEdlbmVyYXRlZCBDZXJ0
aWZpY2F0ZTAdBgNVHQ4EFgQUBIDU7WHcYWLjaIVSvH3frU6LsRMwHwYDVR0jBBgw
FoAU+6cj01fmF+HZr/5xLJfh6pRd/NYwIAYDVR0RBBkwF4IVKi5tZXRhZGF0YWNl
bnRlci5vcmd4MA0GCSqGSIb3DQEBCwUAA4ICAQCd9fbzW8vrPOJVbJ/bKCEq8yWd
SHPdV4+9DkYPrmrucJfKf+VweQ8ouSWuJK13yk7YoLY/teOeuJpCU14qjX2K+0ck
f6owT23EcGPRJKYEZ8ySfhguW+BZ/8JkpxaB7oQTBgvM2okQNcjnnGEDH2PjeQVB
Obj27ze45EQgrH6uJognTuJDw09EfydYaCqz8lQwvhofCVnuk9v6AurbpMcqpbeL
SqNPzUwvSOxIyArPqdfvBFORpwJG85TNfT2u907Bgx4eYRQyCimz2zMPeUoZ7M1F
h/0zIKJ3tKl0NmJDahHn6QuE9inmie8VS4DNX85N6O9Sf24/13MQdmNeFAvnIrQo
O0rLGzHqGhhJyFDERB0ulmK0Sed/8YKxS/HD8WKMOdyXCJaICViuXBnbY8ItNU/S
yMUcKio5WRhM8kpbAXXxaD1/FJ8xrdM968BigyCRu/4ifG8oEz16oz3BtpWhrolM
9CJ1+/SztBjCr3lVa0TIu7LYl+GWMNTzNATYe4VyV8tVzbp1f/ijdWKWGRoE6O4X
ItplN+R5TxjytBtcMgRpiStCtqeBsBjbyMXrZd9KvZeOoksxAOuxR9n+d5UQIY/m
NoHg0gbcSFrT0m/x+nkEZ605jtvjQh2Rl8ZeVNqX1p/oZn86a5K8kZrl8PTSBtlY
FqhtLXWd/zpGN1VSzA==
-----END CERTIFICATE-----
