Certificate:
    Data:
        Version: 3 (0x2)
        Serial Number: 13 (0xd)
    Signature Algorithm: sha256WithRSAEncryption
        Issuer: C=US, ST=California, L=Stanford, O=BMIR, OU=CEDAR, CN=metadatacenter.orgx/emailAddress=metadatacenter@gmail.com
        Validity
            Not Before: Jun 11 23:37:24 2018 GMT
            Not After : Jun  8 23:37:24 2028 GMT
        Subject: C=US, ST=California, O=BMIR, OU=CEDAR, CN=terminology.metadatacenter.orgx/emailAddress=metadatacenter@gmail.com
        Subject Public Key Info:
            Public Key Algorithm: rsaEncryption
                Public-Key: (2048 bit)
                Modulus:
                    00:c1:e9:d6:d0:5d:77:24:d4:7f:85:30:ff:54:05:
                    bd:ce:78:50:11:5f:4b:ee:96:cb:43:3d:8c:7f:fe:
                    ac:1f:ef:96:fd:fc:f5:40:13:5a:61:19:ae:01:27:
                    49:cd:2b:eb:b2:6c:ba:77:31:e9:df:24:46:c6:54:
                    eb:4d:01:4f:f0:a2:d3:11:fe:81:f0:39:3c:65:3c:
                    63:23:2a:8c:14:e8:96:12:07:a6:b1:50:82:f9:36:
                    1a:7a:6b:43:0e:0e:53:fd:14:3a:1d:e6:c3:ee:87:
                    be:ad:6c:d4:83:58:32:f5:e4:e9:f3:4c:d8:4f:d8:
                    6a:1e:74:68:da:19:79:3d:92:ae:24:fa:30:1c:ff:
                    8c:f9:15:fc:67:03:38:2f:a2:fa:9d:fb:64:fb:3a:
                    42:4a:6c:af:82:60:85:28:14:67:e8:30:9d:fb:23:
                    1d:78:a4:90:ef:19:84:b2:29:0f:d4:66:a8:ff:db:
                    05:d9:00:90:3d:e3:ec:30:35:a5:ad:4a:98:d0:60:
                    cb:fb:a7:a7:97:19:73:85:b7:83:90:d2:a4:b3:73:
                    a7:43:a9:b3:a7:bb:69:1c:74:e4:1d:f2:b0:5f:a9:
                    ce:d5:e8:d5:63:2a:ec:85:3c:bb:09:94:5f:94:7b:
                    55:c5:ec:9d:02:f0:d6:35:e7:a4:a0:79:44:19:5e:
                    9a:61
                Exponent: 65537 (0x10001)
        X509v3 extensions:
            X509v3 Basic Constraints: 
                CA:FALSE
            Netscape Comment: 
                OpenSSL Generated Certificate
            X509v3 Subject Key Identifier: 
                51:0F:15:40:4A:B3:58:44:62:28:C9:56:42:96:B2:C9:3D:64:51:62
            X509v3 Authority Key Identifier: 
                keyid:FB:A7:23:D3:57:E6:17:E1:D9:AF:FE:71:2C:97:E1:EA:94:5D:FC:D6

            X509v3 Subject Alternative Name: 
                DNS:*.metadatacenter.orgx
    Signature Algorithm: sha256WithRSAEncryption
         1c:3a:9d:78:10:7e:42:79:b6:75:c7:91:4e:b7:7b:0b:34:72:
         d9:c9:53:4e:bb:9b:50:85:7e:54:07:11:d5:58:19:20:72:6e:
         2a:fb:97:42:fa:9a:93:20:9f:99:6c:38:9d:79:3f:cd:0d:84:
         16:2c:25:6d:55:54:5a:db:3b:c0:d8:09:c1:19:16:51:eb:b0:
         7d:6b:2d:67:00:96:84:b0:b4:b1:f6:f4:2b:f2:9a:d6:d4:34:
         05:d6:6f:f5:63:c0:55:27:20:11:62:e1:62:cc:35:80:02:e4:
         f0:30:c3:fc:1b:47:4b:47:04:50:7f:d3:93:1a:05:f0:c4:01:
         60:67:ba:c9:8a:22:bc:c9:43:aa:49:62:3e:3e:82:30:08:b6:
         2e:7a:c5:10:fa:e7:b2:49:fc:75:69:4e:69:62:43:f6:e9:70:
         a5:f9:69:c6:12:54:50:f3:b6:bc:42:2d:f9:a9:20:49:46:c5:
         36:d7:f1:2a:92:fb:26:b5:36:bb:73:c7:27:3d:42:38:e0:66:
         a6:94:59:ec:cc:1f:a2:51:35:2e:c7:85:1e:7f:4d:86:34:59:
         e3:78:7b:70:a7:49:f7:04:b9:49:f7:bf:c4:dc:0f:14:4d:b3:
         94:a4:1c:9b:25:f3:d5:a7:97:5f:7d:0b:fb:59:f5:c1:dd:86:
         68:b0:64:8c:5c:7a:f5:3d:f2:f3:c4:fd:6a:d1:8a:01:b5:43:
         9c:d0:a4:4d:ee:a7:06:1a:11:ff:71:ed:fa:1c:a5:01:20:c7:
         9a:fb:0a:b7:ed:07:d4:6c:b6:87:ff:b9:e2:f1:f1:66:9b:9e:
         08:ee:b4:e8:62:fb:ad:ec:1e:31:c1:5a:d3:8f:ef:bb:1d:33:
         ba:d5:8e:49:b7:d6:ec:f8:71:e6:77:a2:af:31:b1:0d:67:5b:
         3d:96:7e:c1:0c:4e:b9:1e:76:6a:13:e7:86:fb:1f:d0:b3:5d:
         d2:88:ce:35:5b:46:ef:1a:f3:a2:5d:8e:0f:44:c3:db:73:52:
         85:34:7d:ef:49:e8:55:f0:3d:96:96:94:8d:3c:bd:05:3b:95:
         08:aa:f4:bb:c6:00:fa:d2:ff:83:48:09:c7:44:a3:6e:06:36:
         a9:86:cc:61:0f:d8:04:be:00:50:5f:59:9b:9f:e3:2b:8e:34:
         d6:a2:aa:6c:2e:82:46:3c:d9:db:7e:49:91:09:f2:08:70:11:
         62:5d:5b:16:30:5c:ef:9c:19:db:39:ec:6b:92:3d:a7:02:d7:
         d8:82:7f:3c:66:e7:47:6d:61:c4:3f:5c:70:85:08:f8:54:ba:
         77:3d:96:0f:19:25:56:49:17:b5:72:34:11:c3:30:c4:eb:21:
         97:31:54:d8:89:22:35:1c
-----BEGIN CERTIFICATE-----
MIIFSzCCAzOgAwIBAgIBDTANBgkqhkiG9w0BAQsFADCBmzELMAkGA1UEBhMCVVMx
EzARBgNVBAgMCkNhbGlmb3JuaWExETAPBgNVBAcMCFN0YW5mb3JkMQ0wCwYDVQQK
DARCTUlSMQ4wDAYDVQQLDAVDRURBUjEcMBoGA1UEAwwTbWV0YWRhdGFjZW50ZXIu
b3JneDEnMCUGCSqGSIb3DQEJARYYbWV0YWRhdGFjZW50ZXJAZ21haWwuY29tMB4X
DTE4MDYxMTIzMzcyNFoXDTI4MDYwODIzMzcyNFowgZQxCzAJBgNVBAYTAlVTMRMw
EQYDVQQIDApDYWxpZm9ybmlhMQ0wCwYDVQQKDARCTUlSMQ4wDAYDVQQLDAVDRURB
UjEoMCYGA1UEAwwfdGVybWlub2xvZ3kubWV0YWRhdGFjZW50ZXIub3JneDEnMCUG
CSqGSIb3DQEJARYYbWV0YWRhdGFjZW50ZXJAZ21haWwuY29tMIIBIjANBgkqhkiG
9w0BAQEFAAOCAQ8AMIIBCgKCAQEAwenW0F13JNR/hTD/VAW9znhQEV9L7pbLQz2M
f/6sH++W/fz1QBNaYRmuASdJzSvrsmy6dzHp3yRGxlTrTQFP8KLTEf6B8Dk8ZTxj
IyqMFOiWEgemsVCC+TYaemtDDg5T/RQ6HebD7oe+rWzUg1gy9eTp80zYT9hqHnRo
2hl5PZKuJPowHP+M+RX8ZwM4L6L6nftk+zpCSmyvgmCFKBRn6DCd+yMdeKSQ7xmE
sikP1Gao/9sF2QCQPePsMDWlrUqY0GDL+6enlxlzhbeDkNKks3OnQ6mzp7tpHHTk
HfKwX6nO1ejVYyrshTy7CZRflHtVxeydAvDWNeekoHlEGV6aYQIDAQABo4GeMIGb
MAkGA1UdEwQCMAAwLAYJYIZIAYb4QgENBB8WHU9wZW5TU0wgR2VuZXJhdGVkIENl
cnRpZmljYXRlMB0GA1UdDgQWBBRRDxVASrNYRGIoyVZClrLJPWRRYjAfBgNVHSME
GDAWgBT7pyPTV+YX4dmv/nEsl+HqlF381jAgBgNVHREEGTAXghUqLm1ldGFkYXRh
Y2VudGVyLm9yZ3gwDQYJKoZIhvcNAQELBQADggIBABw6nXgQfkJ5tnXHkU63ews0
ctnJU067m1CFflQHEdVYGSBybir7l0L6mpMgn5lsOJ15P80NhBYsJW1VVFrbO8DY
CcEZFlHrsH1rLWcAloSwtLH29CvymtbUNAXWb/VjwFUnIBFi4WLMNYAC5PAww/wb
R0tHBFB/05MaBfDEAWBnusmKIrzJQ6pJYj4+gjAIti56xRD657JJ/HVpTmliQ/bp
cKX5acYSVFDztrxCLfmpIElGxTbX8SqS+ya1Nrtzxyc9QjjgZqaUWezMH6JRNS7H
hR5/TYY0WeN4e3CnSfcEuUn3v8TcDxRNs5SkHJsl89Wnl199C/tZ9cHdhmiwZIxc
evU98vPE/WrRigG1Q5zQpE3upwYaEf9x7focpQEgx5r7CrftB9Rstof/ueLx8Wab
ngjutOhi+63sHjHBWtOP77sdM7rVjkm31uz4ceZ3oq8xsQ1nWz2WfsEMTrkedmoT
54b7H9CzXdKIzjVbRu8a86Jdjg9Ew9tzUoU0fe9J6FXwPZaWlI08vQU7lQiq9LvG
APrS/4NICcdEo24GNqmGzGEP2AS+AFBfWZuf4yuONNaiqmwugkY82dt+SZEJ8ghw
EWJdWxYwXO+cGds57GuSPacC19iCfzxm50dtYcQ/XHCFCPhUunc9lg8ZJVZJF7Vy
NBHDMMTrIZcxVNiJIjUc
-----END CERTIFICATE-----
