Certificate:
    Data:
        Version: 3 (0x2)
        Serial Number: 17 (0x11)
    Signature Algorithm: sha256WithRSAEncryption
        Issuer: C=US, ST=California, L=Stanford, O=BMIR, OU=CEDAR, CN=metadatacenter.orgx/emailAddress=metadatacenter@gmail.com
        Validity
            Not Before: Jun 11 23:41:55 2018 GMT
            Not After : Jun  8 23:41:55 2028 GMT
        Subject: C=US, ST=California, O=BMIR, OU=CEDAR, CN=workspace.metadatacenter.orgx/emailAddress=metadatacenter@gmail.com
        Subject Public Key Info:
            Public Key Algorithm: rsaEncryption
                Public-Key: (2048 bit)
                Modulus:
                    00:cc:88:3f:7e:f6:15:4b:32:ea:06:7b:a3:7c:a9:
                    aa:80:be:31:3b:fb:1e:89:fb:31:d8:16:e4:68:93:
                    e1:54:3f:d9:34:2c:d8:7f:54:93:5b:7c:44:75:a3:
                    ef:a7:a1:b3:e1:75:15:5c:95:51:e5:f2:52:4e:ea:
                    b8:f8:a4:20:0a:1b:f0:27:d8:16:05:56:2f:17:c0:
                    36:b1:46:68:74:20:d8:8e:84:2e:e7:5f:d5:50:22:
                    00:28:c7:79:c1:94:71:9f:42:16:ae:38:fc:57:60:
                    97:99:cc:14:ba:32:3d:f4:fd:c9:8d:c1:06:ed:6d:
                    b0:51:07:8c:b7:15:ef:bd:76:2f:46:24:74:ea:ef:
                    d2:8c:bf:47:90:57:66:99:d4:07:4e:ab:82:15:28:
                    c8:dc:9c:b0:09:8f:74:02:f6:39:fd:bb:3d:6e:e0:
                    cb:66:ae:b8:cd:4f:83:2b:1f:4f:e0:37:8b:ab:8a:
                    5c:16:39:64:29:59:d9:d0:fa:f7:d7:dc:88:5f:29:
                    dd:31:15:90:ca:4a:df:a0:9a:39:a1:fb:e7:7c:2d:
                    d6:3e:bd:36:15:95:80:29:c2:52:a5:3a:36:6a:2c:
                    9d:d9:89:63:26:12:2e:07:2b:7e:45:1e:cb:bd:fb:
                    c2:9e:a9:b4:a8:84:2e:82:1a:6a:fd:65:4c:33:46:
                    eb:e7
                Exponent: 65537 (0x10001)
        X509v3 extensions:
            X509v3 Basic Constraints: 
                CA:FALSE
            Netscape Comment: 
                OpenSSL Generated Certificate
            X509v3 Subject Key Identifier: 
                DA:41:76:D9:68:3F:2B:06:CC:EC:7B:2F:D2:AA:F6:9A:BA:F8:46:FA
            X509v3 Authority Key Identifier: 
                keyid:FB:A7:23:D3:57:E6:17:E1:D9:AF:FE:71:2C:97:E1:EA:94:5D:FC:D6

            X509v3 Subject Alternative Name: 
                DNS:*.metadatacenter.orgx
    Signature Algorithm: sha256WithRSAEncryption
         6e:9f:ca:83:38:66:41:ab:2c:10:83:9a:66:63:83:a8:a3:81:
         43:56:04:89:8b:13:66:2f:eb:15:dc:99:96:e7:24:c1:00:74:
         52:71:63:c1:05:5c:02:08:2b:e5:69:4a:d5:fc:6c:76:32:44:
         ee:87:92:85:a6:a9:26:a1:4c:ac:61:54:35:21:d9:08:99:32:
         82:44:b8:19:84:f3:f9:1b:e5:83:95:f6:90:36:27:31:8c:f0:
         b3:c5:4a:fa:86:01:36:1f:89:66:47:c0:7b:ff:bd:61:95:f3:
         de:8f:b1:e9:2c:c4:24:be:a3:ab:36:25:be:a4:5a:60:6b:3d:
         16:62:20:d0:22:c5:99:3b:c1:6d:dd:a5:8a:71:4c:b7:b8:63:
         db:4b:01:9e:fb:07:7c:79:bf:e9:87:c5:93:49:59:ec:b5:78:
         37:58:fa:5d:aa:35:49:ca:d1:7d:14:3d:6e:00:15:25:6a:4a:
         01:f9:27:b5:31:59:1f:8f:9c:08:de:1f:bd:73:80:d7:23:c6:
         fa:85:f6:2d:7d:ee:a6:f6:60:f0:d1:8c:7a:58:d0:a1:e3:c2:
         46:49:ca:46:90:fb:73:dc:23:28:5d:24:b8:9f:5f:39:4d:8d:
         92:73:71:a5:6f:51:33:77:ad:1d:da:72:84:e0:c9:81:67:6f:
         9c:af:0a:4f:68:b1:f0:79:24:e9:ed:a2:15:40:44:8f:30:95:
         2f:48:36:14:06:5d:44:9e:83:b4:1b:ea:23:ff:e6:27:2f:e7:
         f8:6e:45:ed:92:65:00:0a:c0:48:57:a6:95:12:00:20:9d:0c:
         33:3e:e0:a0:22:9b:a9:2e:83:9d:67:14:08:3a:6a:d2:03:55:
         d2:4d:1c:3b:36:5e:29:97:f9:63:3a:fc:a5:73:13:15:f2:76:
         52:0f:6e:c8:0f:cc:04:72:fc:ba:f3:34:24:30:42:56:b9:75:
         84:8d:57:15:09:32:0a:e9:f7:aa:2a:19:4b:ce:43:68:ae:80:
         05:99:e5:5a:d4:9d:21:63:3a:da:fb:88:04:c9:4b:3f:70:76:
         8e:0b:94:77:41:d5:80:c5:6c:0a:ca:86:6e:ec:0f:19:95:a6:
         66:84:4d:a1:5e:26:24:ed:8e:ba:80:14:90:f7:4d:94:dc:18:
         05:cf:3a:b5:90:8a:09:db:a8:83:69:b8:99:f3:e6:14:9d:85:
         38:31:0c:94:fd:c4:f9:f5:87:d3:d5:db:23:ee:d8:33:28:16:
         aa:c1:0e:5f:6f:a2:5d:4b:e4:d6:71:08:eb:66:83:9b:8a:1c:
         b7:5b:de:d3:f2:cf:e8:80:da:fb:1f:7b:25:47:20:d1:38:da:
         7e:f9:96:4b:9a:79:7a:99
-----BEGIN CERTIFICATE-----
MIIFSTCCAzGgAwIBAgIBETANBgkqhkiG9w0BAQsFADCBmzELMAkGA1UEBhMCVVMx
EzARBgNVBAgMCkNhbGlmb3JuaWExETAPBgNVBAcMCFN0YW5mb3JkMQ0wCwYDVQQK
DARCTUlSMQ4wDAYDVQQLDAVDRURBUjEcMBoGA1UEAwwTbWV0YWRhdGFjZW50ZXIu
b3JneDEnMCUGCSqGSIb3DQEJARYYbWV0YWRhdGFjZW50ZXJAZ21haWwuY29tMB4X
DTE4MDYxMTIzNDE1NVoXDTI4MDYwODIzNDE1NVowgZIxCzAJBgNVBAYTAlVTMRMw
EQYDVQQIDApDYWxpZm9ybmlhMQ0wCwYDVQQKDARCTUlSMQ4wDAYDVQQLDAVDRURB
UjEmMCQGA1UEAwwdd29ya3NwYWNlLm1ldGFkYXRhY2VudGVyLm9yZ3gxJzAlBgkq
hkiG9w0BCQEWGG1ldGFkYXRhY2VudGVyQGdtYWlsLmNvbTCCASIwDQYJKoZIhvcN
AQEBBQADggEPADCCAQoCggEBAMyIP372FUsy6gZ7o3ypqoC+MTv7Hon7MdgW5GiT
4VQ/2TQs2H9Uk1t8RHWj76ehs+F1FVyVUeXyUk7quPikIAob8CfYFgVWLxfANrFG
aHQg2I6ELudf1VAiACjHecGUcZ9CFq44/Fdgl5nMFLoyPfT9yY3BBu1tsFEHjLcV
7712L0YkdOrv0oy/R5BXZpnUB06rghUoyNycsAmPdAL2Of27PW7gy2auuM1Pgysf
T+A3i6uKXBY5ZClZ2dD699fciF8p3TEVkMpK36CaOaH753wt1j69NhWVgCnCUqU6
NmosndmJYyYSLgcrfkUey737wp6ptKiELoIaav1lTDNG6+cCAwEAAaOBnjCBmzAJ
BgNVHRMEAjAAMCwGCWCGSAGG+EIBDQQfFh1PcGVuU1NMIEdlbmVyYXRlZCBDZXJ0
aWZpY2F0ZTAdBgNVHQ4EFgQU2kF22Wg/KwbM7Hsv0qr2mrr4RvowHwYDVR0jBBgw
FoAU+6cj01fmF+HZr/5xLJfh6pRd/NYwIAYDVR0RBBkwF4IVKi5tZXRhZGF0YWNl
bnRlci5vcmd4MA0GCSqGSIb3DQEBCwUAA4ICAQBun8qDOGZBqywQg5pmY4Ooo4FD
VgSJixNmL+sV3JmW5yTBAHRScWPBBVwCCCvlaUrV/Gx2MkTuh5KFpqkmoUysYVQ1
IdkImTKCRLgZhPP5G+WDlfaQNicxjPCzxUr6hgE2H4lmR8B7/71hlfPej7HpLMQk
vqOrNiW+pFpgaz0WYiDQIsWZO8Ft3aWKcUy3uGPbSwGe+wd8eb/ph8WTSVnstXg3
WPpdqjVJytF9FD1uABUlakoB+Se1MVkfj5wI3h+9c4DXI8b6hfYtfe6m9mDw0Yx6
WNCh48JGScpGkPtz3CMoXSS4n185TY2Sc3Glb1Ezd60d2nKE4MmBZ2+crwpPaLHw
eSTp7aIVQESPMJUvSDYUBl1EnoO0G+oj/+YnL+f4bkXtkmUACsBIV6aVEgAgnQwz
PuCgIpupLoOdZxQIOmrSA1XSTRw7Nl4pl/ljOvylcxMV8nZSD27ID8wEcvy68zQk
MEJWuXWEjVcVCTIK6feqKhlLzkNoroAFmeVa1J0hYzra+4gEyUs/cHaOC5R3QdWA
xWwKyoZu7A8ZlaZmhE2hXiYk7Y66gBSQ902U3BgFzzq1kIoJ26iDabiZ8+YUnYU4
MQyU/cT59YfT1dsj7tgzKBaqwQ5fb6JdS+TWcQjrZoObihy3W97T8s/ogNr7H3sl
RyDRONp++ZZLmnl6mQ==
-----END CERTIFICATE-----
