Certificate:
    Data:
        Version: 3 (0x2)
        Serial Number: 21 (0x15)
        Signature Algorithm: sha256WithRSAEncryption
        Issuer: C=US, ST=CA, L=Stanford, O=BMIR, OU=CEDAR, CN=metadatacenter.orgx/emailAddress=metadatacenter@gmail.com
        Validity
            Not Before: Oct 13 06:11:44 2020 GMT
            Not After : Jan 15 06:11:44 2023 GMT
        Subject: C=US, ST=CA, O=BMIR, OU=CEDAR, CN=component.metadatacenter.orgx/emailAddress=metadatacenter@gmail.com
        Subject Public Key Info:
            Public Key Algorithm: rsaEncryption
                RSA Public-Key: (2048 bit)
                Modulus:
                    00:cb:0b:8b:3f:d1:d1:65:7e:23:39:9a:50:52:42:
                    11:a0:a1:3b:dc:2d:24:e3:61:40:67:79:a2:17:6b:
                    68:4c:6b:23:96:48:96:1e:31:62:42:25:ab:3d:ee:
                    85:a9:8b:38:13:44:43:59:1a:f3:d6:25:1f:14:89:
                    bf:ee:b5:97:f2:6a:bd:90:5e:53:b3:ad:1f:9f:eb:
                    f9:90:a2:4b:27:be:d8:62:98:9c:e9:6e:41:ba:73:
                    70:63:67:9c:07:7f:7a:8b:f5:d2:03:1e:4f:06:ca:
                    8c:39:88:4c:aa:3f:39:c6:2d:de:f9:76:42:d5:df:
                    24:26:99:17:19:f0:8c:59:ae:c5:3e:15:2e:32:6c:
                    6f:d2:32:b5:40:cf:16:db:f7:6a:63:16:ad:c8:33:
                    91:af:58:8b:ce:04:46:44:fc:ba:36:6c:e4:88:af:
                    2c:2e:fe:52:b4:22:f6:f3:a9:7b:17:46:a4:a4:1d:
                    35:ad:fa:85:b7:05:0a:eb:44:5c:59:92:47:07:6f:
                    1b:2a:0a:82:62:83:1d:7f:38:64:b0:9d:27:c9:ee:
                    ce:26:84:24:bc:bd:6b:55:0e:64:38:0e:e7:47:1e:
                    46:5a:38:17:59:da:ae:e7:2f:8e:60:74:78:45:24:
                    1e:f3:a2:a8:31:44:ed:b4:18:9c:23:22:6f:d9:b0:
                    79:13
                Exponent: 65537 (0x10001)
        X509v3 extensions:
            X509v3 Basic Constraints: 
                CA:FALSE
            Netscape Comment: 
                OpenSSL Generated Certificate
            X509v3 Subject Key Identifier: 
                EE:D0:F9:59:37:9B:5F:F8:39:E3:5F:37:1E:AC:1A:91:3F:75:75:07
            X509v3 Authority Key Identifier: 
                keyid:77:A3:31:7A:29:2E:2A:3D:AA:26:93:C7:E1:8E:09:2E:30:88:0F:96

    Signature Algorithm: sha256WithRSAEncryption
         4c:f6:12:d8:f6:67:1e:44:3b:fa:78:f2:c0:d0:f9:df:5a:18:
         84:8b:2f:3a:2c:6f:42:2d:5c:d1:23:11:81:ff:a6:a7:7d:98:
         1b:d1:94:b0:9d:8f:8d:07:7a:c8:41:6d:15:25:00:f7:09:20:
         bf:cc:35:ac:18:59:6b:d1:7e:f6:a6:b0:40:c9:d1:0f:3e:f3:
         ce:fe:6c:25:74:08:46:62:b2:b7:dc:0e:72:78:b4:b2:3a:6f:
         ef:ba:24:02:39:e9:bc:66:a5:37:1f:e1:68:bc:c0:53:97:75:
         3e:4b:7a:70:2b:28:20:2c:b0:41:e5:2d:b7:fb:96:40:3d:bc:
         33:a5:f3:f3:5a:b8:ec:b8:05:43:14:40:2d:7b:4a:c6:fa:53:
         da:56:82:65:65:8b:79:b3:80:6e:94:dc:5b:96:5f:86:a5:29:
         b4:82:2a:90:f3:86:c7:f6:21:ab:cf:be:5d:82:0a:85:a3:7b:
         aa:8c:5b:6f:a4:ba:ed:18:34:49:18:f2:e0:1a:63:61:72:55:
         cf:ea:13:4f:36:92:c3:8b:bb:b7:50:ce:a6:94:7a:83:e7:0a:
         c2:38:b9:5e:e0:e2:d5:e5:48:be:2b:6c:af:65:f3:5f:13:b3:
         15:f9:63:5d:98:8e:3f:74:40:03:f4:6b:c6:15:f1:e7:c5:15:
         26:a8:23:24:18:29:0e:b6:04:3d:35:5b:15:6b:72:e5:90:f2:
         cb:e1:5d:ba:d7:66:70:e3:7c:ec:bd:7d:e1:0d:f8:e6:28:a9:
         36:88:ff:f9:34:7f:e3:9c:5c:01:45:70:ba:14:1c:ba:8d:d5:
         c5:9d:9c:86:ef:31:01:77:7d:08:88:d8:7e:c5:68:e2:2d:65:
         8f:cf:95:ff:93:49:78:d0:74:55:b9:ab:58:41:d0:4a:0f:a4:
         8e:ad:e0:53:57:06:03:de:b9:c6:00:75:2b:39:f4:35:a0:c1:
         e9:13:a3:6e:67:92:3c:d6:73:83:de:18:b4:57:38:0f:69:b8:
         f9:68:9d:0a:f5:d1:d5:ec:2c:24:11:61:ec:47:db:19:6f:37:
         a7:3d:20:ae:9f:10:ea:40:ef:f4:c8:c9:14:13:eb:4d:88:a6:
         75:88:ac:8a:b9:25:aa:7f:70:7e:05:df:49:2b:ca:d7:5c:22:
         02:80:9d:dc:2e:97:01:03:36:cc:ce:f6:d2:9d:b1:e9:ae:1a:
         bd:ce:24:48:17:34:5c:02:db:58:62:70:b0:b7:29:ff:3b:15:
         1f:4e:6e:73:4f:fc:58:a2:ed:82:a9:0a:48:18:bd:ad:18:69:
         7f:b0:1a:ec:f1:86:36:7e:dc:26:24:a5:87:87:e6:87:02:44:
         0e:b6:74:d7:1c:12:b3:ee
-----BEGIN CERTIFICATE-----
MIIFFTCCAv2gAwIBAgIBFTANBgkqhkiG9w0BAQsFADCBkzELMAkGA1UEBhMCVVMx
CzAJBgNVBAgMAkNBMREwDwYDVQQHDAhTdGFuZm9yZDENMAsGA1UECgwEQk1JUjEO
MAwGA1UECwwFQ0VEQVIxHDAaBgNVBAMME21ldGFkYXRhY2VudGVyLm9yZ3gxJzAl
BgkqhkiG9w0BCQEWGG1ldGFkYXRhY2VudGVyQGdtYWlsLmNvbTAeFw0yMDEwMTMw
NjExNDRaFw0yMzAxMTUwNjExNDRaMIGKMQswCQYDVQQGEwJVUzELMAkGA1UECAwC
Q0ExDTALBgNVBAoMBEJNSVIxDjAMBgNVBAsMBUNFREFSMSYwJAYDVQQDDB1jb21w
b25lbnQubWV0YWRhdGFjZW50ZXIub3JneDEnMCUGCSqGSIb3DQEJARYYbWV0YWRh
dGFjZW50ZXJAZ21haWwuY29tMIIBIjANBgkqhkiG9w0BAQEFAAOCAQ8AMIIBCgKC
AQEAywuLP9HRZX4jOZpQUkIRoKE73C0k42FAZ3miF2toTGsjlkiWHjFiQiWrPe6F
qYs4E0RDWRrz1iUfFIm/7rWX8mq9kF5Ts60fn+v5kKJLJ77YYpic6W5BunNwY2ec
B396i/XSAx5PBsqMOYhMqj85xi3e+XZC1d8kJpkXGfCMWa7FPhUuMmxv0jK1QM8W
2/dqYxatyDORr1iLzgRGRPy6NmzkiK8sLv5StCL286l7F0akpB01rfqFtwUK60Rc
WZJHB28bKgqCYoMdfzhksJ0nye7OJoQkvL1rVQ5kOA7nRx5GWjgXWdqu5y+OYHR4
RSQe86KoMUTttBicIyJv2bB5EwIDAQABo3sweTAJBgNVHRMEAjAAMCwGCWCGSAGG
+EIBDQQfFh1PcGVuU1NMIEdlbmVyYXRlZCBDZXJ0aWZpY2F0ZTAdBgNVHQ4EFgQU
7tD5WTebX/g54183HqwakT91dQcwHwYDVR0jBBgwFoAUd6MxeikuKj2qJpPH4Y4J
LjCID5YwDQYJKoZIhvcNAQELBQADggIBAEz2Etj2Zx5EO/p48sDQ+d9aGISLLzos
b0ItXNEjEYH/pqd9mBvRlLCdj40HeshBbRUlAPcJIL/MNawYWWvRfvamsEDJ0Q8+
887+bCV0CEZisrfcDnJ4tLI6b++6JAI56bxmpTcf4Wi8wFOXdT5LenArKCAssEHl
Lbf7lkA9vDOl8/NauOy4BUMUQC17Ssb6U9pWgmVli3mzgG6U3FuWX4alKbSCKpDz
hsf2IavPvl2CCoWje6qMW2+kuu0YNEkY8uAaY2FyVc/qE082ksOLu7dQzqaUeoPn
CsI4uV7g4tXlSL4rbK9l818TsxX5Y12Yjj90QAP0a8YV8efFFSaoIyQYKQ62BD01
WxVrcuWQ8svhXbrXZnDjfOy9feEN+OYoqTaI//k0f+OcXAFFcLoUHLqN1cWdnIbv
MQF3fQiI2H7FaOItZY/Plf+TSXjQdFW5q1hB0EoPpI6t4FNXBgPeucYAdSs59DWg
wekTo25nkjzWc4PeGLRXOA9puPlonQr10dXsLCQRYexH2xlvN6c9IK6fEOpA7/TI
yRQT602IpnWIrIq5Jap/cH4F30krytdcIgKAndwulwEDNszO9tKdsemuGr3OJEgX
NFwC21hicLC3Kf87FR9ObnNP/Fii7YKpCkgYva0YaX+wGuzxhjZ+3CYkpYeH5ocC
RA62dNccErPu
-----END CERTIFICATE-----
