Certificate:
    Data:
        Version: 3 (0x2)
        Serial Number: 12 (0xc)
    Signature Algorithm: sha256WithRSAEncryption
        Issuer: C=US, ST=California, L=Stanford, O=BMIR, OU=CEDAR, CN=metadatacenter.orgx/emailAddress=metadatacenter@gmail.com
        Validity
            Not Before: Jun 11 23:36:24 2018 GMT
            Not After : Jun  8 23:36:24 2028 GMT
        Subject: C=US, ST=California, O=BMIR, OU=CEDAR, CN=template.metadatacenter.orgx/emailAddress=metadatacenter@gmail.com
        Subject Public Key Info:
            Public Key Algorithm: rsaEncryption
                Public-Key: (2048 bit)
                Modulus:
                    00:a8:f6:17:49:d8:c5:d7:a8:5c:40:d9:ec:21:a3:
                    18:ee:6a:b5:cc:b6:e7:8c:4a:3a:9f:e6:14:ad:21:
                    c5:85:66:3b:ec:5a:b4:c9:bc:94:df:31:39:24:74:
                    6d:71:2f:ff:0e:0b:87:45:d7:4f:15:aa:18:cc:9b:
                    bb:e5:e3:f7:49:2c:f3:42:ff:5d:b3:c4:26:40:f9:
                    67:da:12:2a:a9:9b:e2:70:7c:e9:ed:7b:8d:a2:11:
                    e7:ca:26:8d:60:3e:ea:9d:da:4c:38:54:f6:26:62:
                    8a:5f:f4:8a:ce:d9:63:95:20:37:a7:b7:81:0c:64:
                    8e:94:2e:43:cc:d4:bd:e7:41:24:55:af:3f:39:92:
                    11:a1:5c:b8:7e:46:48:fc:5e:10:04:7e:39:2c:d5:
                    55:7f:7c:7a:f0:24:e7:16:a1:db:55:7d:f4:b7:49:
                    37:4a:32:d1:e2:1e:79:1e:50:57:ff:c6:dd:62:39:
                    0b:10:99:52:69:48:ec:95:55:d1:95:e3:12:8a:4e:
                    0b:e1:82:8e:88:6b:f3:19:ee:5a:33:c2:d1:6c:f2:
                    61:83:ee:a2:d6:cf:a0:78:11:f2:1a:7d:4c:cb:66:
                    f2:08:06:66:46:b8:84:97:e7:bc:55:5c:cb:dd:28:
                    b1:6f:90:99:aa:b5:dd:9e:04:ec:4a:09:bd:52:84:
                    ca:27
                Exponent: 65537 (0x10001)
        X509v3 extensions:
            X509v3 Basic Constraints: 
                CA:FALSE
            Netscape Comment: 
                OpenSSL Generated Certificate
            X509v3 Subject Key Identifier: 
                BC:B9:A9:CF:C0:EA:9D:1A:66:93:98:60:E5:C4:4F:62:98:6F:8B:F3
            X509v3 Authority Key Identifier: 
                keyid:FB:A7:23:D3:57:E6:17:E1:D9:AF:FE:71:2C:97:E1:EA:94:5D:FC:D6

            X509v3 Subject Alternative Name: 
                DNS:*.metadatacenter.orgx
    Signature Algorithm: sha256WithRSAEncryption
         66:17:fe:b2:3c:38:0c:69:43:67:c4:86:b6:48:c0:95:57:78:
         b9:8f:42:32:14:d9:e7:15:f1:12:88:9b:d5:96:2f:5a:26:9a:
         8f:87:0f:2e:58:3e:f7:99:a3:2d:91:34:55:6f:94:eb:51:67:
         0a:db:f3:67:d8:d1:e6:10:9d:77:82:36:f7:25:db:a6:6b:59:
         64:4c:78:b8:73:ef:0c:bc:bb:55:8b:e9:f0:aa:d9:07:fc:b5:
         bf:5b:67:b3:63:b9:9c:fd:f5:04:40:2f:9d:85:6a:56:db:e9:
         28:6b:d4:63:c3:b8:1a:08:82:18:d7:c6:f5:66:75:0d:de:ef:
         9e:c0:92:bd:51:05:6f:d0:f6:dd:15:00:1b:6d:d9:87:07:7b:
         56:7c:be:b4:87:e5:b4:6f:2a:e3:f0:da:98:50:f6:29:a4:63:
         ff:4b:e6:2a:d2:d1:38:da:20:6d:4c:84:ab:25:9e:48:e8:26:
         84:5f:07:30:f4:06:e3:d2:36:45:df:07:e3:2d:1f:d9:60:cf:
         08:f0:af:8c:30:c1:0c:03:36:bf:4c:ef:d5:e7:d7:0c:ee:2c:
         91:9f:06:bc:41:e8:9a:00:43:12:a1:15:f9:f1:ad:fe:c4:08:
         70:91:7b:12:0a:a2:fa:bf:1e:92:ac:3e:57:91:3d:7a:97:23:
         83:bd:e4:0e:ba:7e:cb:ad:21:a2:1d:5e:23:85:53:23:a4:fe:
         95:88:75:3d:ea:d6:9f:ec:da:c0:b2:e7:1e:05:76:35:c1:ab:
         e1:43:92:34:b9:49:35:4f:b3:a4:e1:b9:dc:4c:d0:10:e3:66:
         f6:3f:55:e8:7c:88:ad:84:80:8e:6a:d8:ec:dc:8c:e5:d3:8b:
         ab:64:20:5c:db:3d:e3:44:9f:8d:26:3a:9c:60:46:69:18:57:
         0b:9e:11:87:bd:8d:f1:86:d5:21:50:51:6b:3b:6e:a8:d6:0b:
         67:69:11:2d:90:77:2f:91:3d:b8:73:a7:bc:5b:dd:78:04:34:
         46:50:51:c1:51:e7:00:08:23:f5:0f:de:17:24:b3:1d:e0:d7:
         0d:64:cf:f7:41:81:86:55:c1:22:3f:0b:60:84:c7:c4:5a:d6:
         69:31:f4:31:8f:69:ce:0e:19:f7:e7:ea:1b:6b:48:38:e6:57:
         2f:07:50:16:d7:05:a3:ed:3f:c7:92:c1:48:8c:28:43:ce:e4:
         2f:0e:be:25:d3:89:ba:55:87:bd:ac:c7:f3:52:01:90:52:80:
         e7:23:63:a5:50:24:9b:b4:ff:8e:a2:42:bc:ed:ed:fe:09:7c:
         4c:db:ca:6a:f0:bd:1b:20:99:76:73:49:41:c2:5a:eb:39:85:
         a0:74:30:39:28:46:19:49
-----BEGIN CERTIFICATE-----
MIIFSDCCAzCgAwIBAgIBDDANBgkqhkiG9w0BAQsFADCBmzELMAkGA1UEBhMCVVMx
EzARBgNVBAgMCkNhbGlmb3JuaWExETAPBgNVBAcMCFN0YW5mb3JkMQ0wCwYDVQQK
DARCTUlSMQ4wDAYDVQQLDAVDRURBUjEcMBoGA1UEAwwTbWV0YWRhdGFjZW50ZXIu
b3JneDEnMCUGCSqGSIb3DQEJARYYbWV0YWRhdGFjZW50ZXJAZ21haWwuY29tMB4X
DTE4MDYxMTIzMzYyNFoXDTI4MDYwODIzMzYyNFowgZExCzAJBgNVBAYTAlVTMRMw
EQYDVQQIDApDYWxpZm9ybmlhMQ0wCwYDVQQKDARCTUlSMQ4wDAYDVQQLDAVDRURB
UjElMCMGA1UEAwwcdGVtcGxhdGUubWV0YWRhdGFjZW50ZXIub3JneDEnMCUGCSqG
SIb3DQEJARYYbWV0YWRhdGFjZW50ZXJAZ21haWwuY29tMIIBIjANBgkqhkiG9w0B
AQEFAAOCAQ8AMIIBCgKCAQEAqPYXSdjF16hcQNnsIaMY7mq1zLbnjEo6n+YUrSHF
hWY77Fq0ybyU3zE5JHRtcS//DguHRddPFaoYzJu75eP3SSzzQv9ds8QmQPln2hIq
qZvicHzp7XuNohHnyiaNYD7qndpMOFT2JmKKX/SKztljlSA3p7eBDGSOlC5DzNS9
50EkVa8/OZIRoVy4fkZI/F4QBH45LNVVf3x68CTnFqHbVX30t0k3SjLR4h55HlBX
/8bdYjkLEJlSaUjslVXRleMSik4L4YKOiGvzGe5aM8LRbPJhg+6i1s+geBHyGn1M
y2byCAZmRriEl+e8VVzL3Sixb5CZqrXdngTsSgm9UoTKJwIDAQABo4GeMIGbMAkG
A1UdEwQCMAAwLAYJYIZIAYb4QgENBB8WHU9wZW5TU0wgR2VuZXJhdGVkIENlcnRp
ZmljYXRlMB0GA1UdDgQWBBS8uanPwOqdGmaTmGDlxE9imG+L8zAfBgNVHSMEGDAW
gBT7pyPTV+YX4dmv/nEsl+HqlF381jAgBgNVHREEGTAXghUqLm1ldGFkYXRhY2Vu
dGVyLm9yZ3gwDQYJKoZIhvcNAQELBQADggIBAGYX/rI8OAxpQ2fEhrZIwJVXeLmP
QjIU2ecV8RKIm9WWL1ommo+HDy5YPveZoy2RNFVvlOtRZwrb82fY0eYQnXeCNvcl
26ZrWWRMeLhz7wy8u1WL6fCq2Qf8tb9bZ7NjuZz99QRAL52Falbb6Shr1GPDuBoI
ghjXxvVmdQ3e757Akr1RBW/Q9t0VABtt2YcHe1Z8vrSH5bRvKuPw2phQ9imkY/9L
5irS0TjaIG1MhKslnkjoJoRfBzD0BuPSNkXfB+MtH9lgzwjwr4wwwQwDNr9M79Xn
1wzuLJGfBrxB6JoAQxKhFfnxrf7ECHCRexIKovq/HpKsPleRPXqXI4O95A66fsut
IaIdXiOFUyOk/pWIdT3q1p/s2sCy5x4FdjXBq+FDkjS5STVPs6ThudxM0BDjZvY/
Veh8iK2EgI5q2OzcjOXTi6tkIFzbPeNEn40mOpxgRmkYVwueEYe9jfGG1SFQUWs7
bqjWC2dpES2Qdy+RPbhzp7xb3XgENEZQUcFR5wAII/UP3hcksx3g1w1kz/dBgYZV
wSI/C2CEx8Ra1mkx9DGPac4OGffn6htrSDjmVy8HUBbXBaPtP8eSwUiMKEPO5C8O
viXTibpVh72sx/NSAZBSgOcjY6VQJJu0/46iQrzt7f4JfEzbymrwvRsgmXZzSUHC
Wus5haB0MDkoRhlJ
-----END CERTIFICATE-----
